
obj/game/game：     文件格式 elf32-i386


Disassembly of section .text:

00100000 <printnum>:
  100000:	55                   	push   %ebp
  100001:	89 e5                	mov    %esp,%ebp
  100003:	83 ec 28             	sub    $0x28,%esp
  100006:	8b 45 10             	mov    0x10(%ebp),%eax
  100009:	3b 45 14             	cmp    0x14(%ebp),%eax
  10000c:	72 3b                	jb     100049 <printnum+0x49>
  10000e:	8b 45 18             	mov    0x18(%ebp),%eax
  100011:	8d 48 ff             	lea    -0x1(%eax),%ecx
  100014:	8b 45 10             	mov    0x10(%ebp),%eax
  100017:	ba 00 00 00 00       	mov    $0x0,%edx
  10001c:	f7 75 14             	divl   0x14(%ebp)
  10001f:	8b 55 1c             	mov    0x1c(%ebp),%edx
  100022:	89 54 24 14          	mov    %edx,0x14(%esp)
  100026:	89 4c 24 10          	mov    %ecx,0x10(%esp)
  10002a:	8b 55 14             	mov    0x14(%ebp),%edx
  10002d:	89 54 24 0c          	mov    %edx,0xc(%esp)
  100031:	89 44 24 08          	mov    %eax,0x8(%esp)
  100035:	8b 45 0c             	mov    0xc(%ebp),%eax
  100038:	89 44 24 04          	mov    %eax,0x4(%esp)
  10003c:	8b 45 08             	mov    0x8(%ebp),%eax
  10003f:	89 04 24             	mov    %eax,(%esp)
  100042:	e8 b9 ff ff ff       	call   100000 <printnum>
  100047:	eb 1e                	jmp    100067 <printnum+0x67>
  100049:	eb 12                	jmp    10005d <printnum+0x5d>
  10004b:	8b 45 0c             	mov    0xc(%ebp),%eax
  10004e:	89 44 24 04          	mov    %eax,0x4(%esp)
  100052:	8b 45 1c             	mov    0x1c(%ebp),%eax
  100055:	89 04 24             	mov    %eax,(%esp)
  100058:	8b 45 08             	mov    0x8(%ebp),%eax
  10005b:	ff d0                	call   *%eax
  10005d:	83 6d 18 01          	subl   $0x1,0x18(%ebp)
  100061:	83 7d 18 00          	cmpl   $0x0,0x18(%ebp)
  100065:	7f e4                	jg     10004b <printnum+0x4b>
  100067:	8b 45 10             	mov    0x10(%ebp),%eax
  10006a:	ba 00 00 00 00       	mov    $0x0,%edx
  10006f:	f7 75 14             	divl   0x14(%ebp)
  100072:	89 d0                	mov    %edx,%eax
  100074:	0f b6 80 80 1d 10 00 	movzbl 0x101d80(%eax),%eax
  10007b:	0f be c0             	movsbl %al,%eax
  10007e:	8b 55 0c             	mov    0xc(%ebp),%edx
  100081:	89 54 24 04          	mov    %edx,0x4(%esp)
  100085:	89 04 24             	mov    %eax,(%esp)
  100088:	8b 45 08             	mov    0x8(%ebp),%eax
  10008b:	ff d0                	call   *%eax
  10008d:	c9                   	leave  
  10008e:	c3                   	ret    

0010008f <getuint>:
  10008f:	55                   	push   %ebp
  100090:	89 e5                	mov    %esp,%ebp
  100092:	83 7d 0c 01          	cmpl   $0x1,0xc(%ebp)
  100096:	7e 14                	jle    1000ac <getuint+0x1d>
  100098:	8b 45 08             	mov    0x8(%ebp),%eax
  10009b:	8b 00                	mov    (%eax),%eax
  10009d:	8d 48 08             	lea    0x8(%eax),%ecx
  1000a0:	8b 55 08             	mov    0x8(%ebp),%edx
  1000a3:	89 0a                	mov    %ecx,(%edx)
  1000a5:	8b 50 04             	mov    0x4(%eax),%edx
  1000a8:	8b 00                	mov    (%eax),%eax
  1000aa:	eb 30                	jmp    1000dc <getuint+0x4d>
  1000ac:	83 7d 0c 00          	cmpl   $0x0,0xc(%ebp)
  1000b0:	74 16                	je     1000c8 <getuint+0x39>
  1000b2:	8b 45 08             	mov    0x8(%ebp),%eax
  1000b5:	8b 00                	mov    (%eax),%eax
  1000b7:	8d 48 04             	lea    0x4(%eax),%ecx
  1000ba:	8b 55 08             	mov    0x8(%ebp),%edx
  1000bd:	89 0a                	mov    %ecx,(%edx)
  1000bf:	8b 00                	mov    (%eax),%eax
  1000c1:	ba 00 00 00 00       	mov    $0x0,%edx
  1000c6:	eb 14                	jmp    1000dc <getuint+0x4d>
  1000c8:	8b 45 08             	mov    0x8(%ebp),%eax
  1000cb:	8b 00                	mov    (%eax),%eax
  1000cd:	8d 48 04             	lea    0x4(%eax),%ecx
  1000d0:	8b 55 08             	mov    0x8(%ebp),%edx
  1000d3:	89 0a                	mov    %ecx,(%edx)
  1000d5:	8b 00                	mov    (%eax),%eax
  1000d7:	ba 00 00 00 00       	mov    $0x0,%edx
  1000dc:	5d                   	pop    %ebp
  1000dd:	c3                   	ret    

001000de <getint>:
  1000de:	55                   	push   %ebp
  1000df:	89 e5                	mov    %esp,%ebp
  1000e1:	83 7d 0c 01          	cmpl   $0x1,0xc(%ebp)
  1000e5:	7e 14                	jle    1000fb <getint+0x1d>
  1000e7:	8b 45 08             	mov    0x8(%ebp),%eax
  1000ea:	8b 00                	mov    (%eax),%eax
  1000ec:	8d 48 08             	lea    0x8(%eax),%ecx
  1000ef:	8b 55 08             	mov    0x8(%ebp),%edx
  1000f2:	89 0a                	mov    %ecx,(%edx)
  1000f4:	8b 50 04             	mov    0x4(%eax),%edx
  1000f7:	8b 00                	mov    (%eax),%eax
  1000f9:	eb 28                	jmp    100123 <getint+0x45>
  1000fb:	83 7d 0c 00          	cmpl   $0x0,0xc(%ebp)
  1000ff:	74 12                	je     100113 <getint+0x35>
  100101:	8b 45 08             	mov    0x8(%ebp),%eax
  100104:	8b 00                	mov    (%eax),%eax
  100106:	8d 48 04             	lea    0x4(%eax),%ecx
  100109:	8b 55 08             	mov    0x8(%ebp),%edx
  10010c:	89 0a                	mov    %ecx,(%edx)
  10010e:	8b 00                	mov    (%eax),%eax
  100110:	99                   	cltd   
  100111:	eb 10                	jmp    100123 <getint+0x45>
  100113:	8b 45 08             	mov    0x8(%ebp),%eax
  100116:	8b 00                	mov    (%eax),%eax
  100118:	8d 48 04             	lea    0x4(%eax),%ecx
  10011b:	8b 55 08             	mov    0x8(%ebp),%edx
  10011e:	89 0a                	mov    %ecx,(%edx)
  100120:	8b 00                	mov    (%eax),%eax
  100122:	99                   	cltd   
  100123:	5d                   	pop    %ebp
  100124:	c3                   	ret    

00100125 <vprintfmt>:
  100125:	55                   	push   %ebp
  100126:	89 e5                	mov    %esp,%ebp
  100128:	56                   	push   %esi
  100129:	53                   	push   %ebx
  10012a:	83 ec 40             	sub    $0x40,%esp
  10012d:	eb 18                	jmp    100147 <vprintfmt+0x22>
  10012f:	85 db                	test   %ebx,%ebx
  100131:	75 05                	jne    100138 <vprintfmt+0x13>
  100133:	e9 e2 03 00 00       	jmp    10051a <vprintfmt+0x3f5>
  100138:	8b 45 0c             	mov    0xc(%ebp),%eax
  10013b:	89 44 24 04          	mov    %eax,0x4(%esp)
  10013f:	89 1c 24             	mov    %ebx,(%esp)
  100142:	8b 45 08             	mov    0x8(%ebp),%eax
  100145:	ff d0                	call   *%eax
  100147:	8b 45 10             	mov    0x10(%ebp),%eax
  10014a:	8d 50 01             	lea    0x1(%eax),%edx
  10014d:	89 55 10             	mov    %edx,0x10(%ebp)
  100150:	0f b6 00             	movzbl (%eax),%eax
  100153:	0f b6 d8             	movzbl %al,%ebx
  100156:	83 fb 25             	cmp    $0x25,%ebx
  100159:	75 d4                	jne    10012f <vprintfmt+0xa>
  10015b:	c6 45 db 20          	movb   $0x20,-0x25(%ebp)
  10015f:	c7 45 e4 ff ff ff ff 	movl   $0xffffffff,-0x1c(%ebp)
  100166:	c7 45 e8 ff ff ff ff 	movl   $0xffffffff,-0x18(%ebp)
  10016d:	c7 45 e0 00 00 00 00 	movl   $0x0,-0x20(%ebp)
  100174:	c7 45 ec 00 00 00 00 	movl   $0x0,-0x14(%ebp)
  10017b:	8b 45 10             	mov    0x10(%ebp),%eax
  10017e:	8d 50 01             	lea    0x1(%eax),%edx
  100181:	89 55 10             	mov    %edx,0x10(%ebp)
  100184:	0f b6 00             	movzbl (%eax),%eax
  100187:	0f b6 d8             	movzbl %al,%ebx
  10018a:	8d 43 dd             	lea    -0x23(%ebx),%eax
  10018d:	83 f8 55             	cmp    $0x55,%eax
  100190:	0f 87 53 03 00 00    	ja     1004e9 <vprintfmt+0x3c4>
  100196:	8b 04 85 a4 1d 10 00 	mov    0x101da4(,%eax,4),%eax
  10019d:	ff e0                	jmp    *%eax
  10019f:	c6 45 db 2d          	movb   $0x2d,-0x25(%ebp)
  1001a3:	eb d6                	jmp    10017b <vprintfmt+0x56>
  1001a5:	c6 45 db 30          	movb   $0x30,-0x25(%ebp)
  1001a9:	eb d0                	jmp    10017b <vprintfmt+0x56>
  1001ab:	c7 45 e8 00 00 00 00 	movl   $0x0,-0x18(%ebp)
  1001b2:	8b 55 e8             	mov    -0x18(%ebp),%edx
  1001b5:	89 d0                	mov    %edx,%eax
  1001b7:	c1 e0 02             	shl    $0x2,%eax
  1001ba:	01 d0                	add    %edx,%eax
  1001bc:	01 c0                	add    %eax,%eax
  1001be:	01 d8                	add    %ebx,%eax
  1001c0:	83 e8 30             	sub    $0x30,%eax
  1001c3:	89 45 e8             	mov    %eax,-0x18(%ebp)
  1001c6:	8b 45 10             	mov    0x10(%ebp),%eax
  1001c9:	0f b6 00             	movzbl (%eax),%eax
  1001cc:	0f be d8             	movsbl %al,%ebx
  1001cf:	83 fb 2f             	cmp    $0x2f,%ebx
  1001d2:	7e 0b                	jle    1001df <vprintfmt+0xba>
  1001d4:	83 fb 39             	cmp    $0x39,%ebx
  1001d7:	7f 06                	jg     1001df <vprintfmt+0xba>
  1001d9:	83 45 10 01          	addl   $0x1,0x10(%ebp)
  1001dd:	eb d3                	jmp    1001b2 <vprintfmt+0x8d>
  1001df:	eb 33                	jmp    100214 <vprintfmt+0xef>
  1001e1:	8b 45 14             	mov    0x14(%ebp),%eax
  1001e4:	8d 50 04             	lea    0x4(%eax),%edx
  1001e7:	89 55 14             	mov    %edx,0x14(%ebp)
  1001ea:	8b 00                	mov    (%eax),%eax
  1001ec:	89 45 e8             	mov    %eax,-0x18(%ebp)
  1001ef:	eb 23                	jmp    100214 <vprintfmt+0xef>
  1001f1:	83 7d e4 00          	cmpl   $0x0,-0x1c(%ebp)
  1001f5:	79 0c                	jns    100203 <vprintfmt+0xde>
  1001f7:	c7 45 e4 00 00 00 00 	movl   $0x0,-0x1c(%ebp)
  1001fe:	e9 78 ff ff ff       	jmp    10017b <vprintfmt+0x56>
  100203:	e9 73 ff ff ff       	jmp    10017b <vprintfmt+0x56>
  100208:	c7 45 ec 01 00 00 00 	movl   $0x1,-0x14(%ebp)
  10020f:	e9 67 ff ff ff       	jmp    10017b <vprintfmt+0x56>
  100214:	83 7d e4 00          	cmpl   $0x0,-0x1c(%ebp)
  100218:	79 12                	jns    10022c <vprintfmt+0x107>
  10021a:	8b 45 e8             	mov    -0x18(%ebp),%eax
  10021d:	89 45 e4             	mov    %eax,-0x1c(%ebp)
  100220:	c7 45 e8 ff ff ff ff 	movl   $0xffffffff,-0x18(%ebp)
  100227:	e9 4f ff ff ff       	jmp    10017b <vprintfmt+0x56>
  10022c:	e9 4a ff ff ff       	jmp    10017b <vprintfmt+0x56>
  100231:	83 45 e0 01          	addl   $0x1,-0x20(%ebp)
  100235:	e9 41 ff ff ff       	jmp    10017b <vprintfmt+0x56>
  10023a:	8b 45 14             	mov    0x14(%ebp),%eax
  10023d:	8d 50 04             	lea    0x4(%eax),%edx
  100240:	89 55 14             	mov    %edx,0x14(%ebp)
  100243:	8b 00                	mov    (%eax),%eax
  100245:	8b 55 0c             	mov    0xc(%ebp),%edx
  100248:	89 54 24 04          	mov    %edx,0x4(%esp)
  10024c:	89 04 24             	mov    %eax,(%esp)
  10024f:	8b 45 08             	mov    0x8(%ebp),%eax
  100252:	ff d0                	call   *%eax
  100254:	e9 bb 02 00 00       	jmp    100514 <vprintfmt+0x3ef>
  100259:	8b 45 14             	mov    0x14(%ebp),%eax
  10025c:	8d 50 04             	lea    0x4(%eax),%edx
  10025f:	89 55 14             	mov    %edx,0x14(%ebp)
  100262:	8b 18                	mov    (%eax),%ebx
  100264:	85 db                	test   %ebx,%ebx
  100266:	79 02                	jns    10026a <vprintfmt+0x145>
  100268:	f7 db                	neg    %ebx
  10026a:	83 fb 07             	cmp    $0x7,%ebx
  10026d:	7f 0b                	jg     10027a <vprintfmt+0x155>
  10026f:	8b 34 9d 60 1d 10 00 	mov    0x101d60(,%ebx,4),%esi
  100276:	85 f6                	test   %esi,%esi
  100278:	75 23                	jne    10029d <vprintfmt+0x178>
  10027a:	89 5c 24 0c          	mov    %ebx,0xc(%esp)
  10027e:	c7 44 24 08 91 1d 10 	movl   $0x101d91,0x8(%esp)
  100285:	00 
  100286:	8b 45 0c             	mov    0xc(%ebp),%eax
  100289:	89 44 24 04          	mov    %eax,0x4(%esp)
  10028d:	8b 45 08             	mov    0x8(%ebp),%eax
  100290:	89 04 24             	mov    %eax,(%esp)
  100293:	e8 89 02 00 00       	call   100521 <printfmt>
  100298:	e9 77 02 00 00       	jmp    100514 <vprintfmt+0x3ef>
  10029d:	89 74 24 0c          	mov    %esi,0xc(%esp)
  1002a1:	c7 44 24 08 9a 1d 10 	movl   $0x101d9a,0x8(%esp)
  1002a8:	00 
  1002a9:	8b 45 0c             	mov    0xc(%ebp),%eax
  1002ac:	89 44 24 04          	mov    %eax,0x4(%esp)
  1002b0:	8b 45 08             	mov    0x8(%ebp),%eax
  1002b3:	89 04 24             	mov    %eax,(%esp)
  1002b6:	e8 66 02 00 00       	call   100521 <printfmt>
  1002bb:	e9 54 02 00 00       	jmp    100514 <vprintfmt+0x3ef>
  1002c0:	8b 45 14             	mov    0x14(%ebp),%eax
  1002c3:	8d 50 04             	lea    0x4(%eax),%edx
  1002c6:	89 55 14             	mov    %edx,0x14(%ebp)
  1002c9:	8b 30                	mov    (%eax),%esi
  1002cb:	85 f6                	test   %esi,%esi
  1002cd:	75 05                	jne    1002d4 <vprintfmt+0x1af>
  1002cf:	be 9d 1d 10 00       	mov    $0x101d9d,%esi
  1002d4:	83 7d e4 00          	cmpl   $0x0,-0x1c(%ebp)
  1002d8:	7e 37                	jle    100311 <vprintfmt+0x1ec>
  1002da:	80 7d db 2d          	cmpb   $0x2d,-0x25(%ebp)
  1002de:	74 31                	je     100311 <vprintfmt+0x1ec>
  1002e0:	8b 45 e8             	mov    -0x18(%ebp),%eax
  1002e3:	89 44 24 04          	mov    %eax,0x4(%esp)
  1002e7:	89 34 24             	mov    %esi,(%esp)
  1002ea:	e8 cf 03 00 00       	call   1006be <strnlen>
  1002ef:	29 45 e4             	sub    %eax,-0x1c(%ebp)
  1002f2:	eb 17                	jmp    10030b <vprintfmt+0x1e6>
  1002f4:	0f be 45 db          	movsbl -0x25(%ebp),%eax
  1002f8:	8b 55 0c             	mov    0xc(%ebp),%edx
  1002fb:	89 54 24 04          	mov    %edx,0x4(%esp)
  1002ff:	89 04 24             	mov    %eax,(%esp)
  100302:	8b 45 08             	mov    0x8(%ebp),%eax
  100305:	ff d0                	call   *%eax
  100307:	83 6d e4 01          	subl   $0x1,-0x1c(%ebp)
  10030b:	83 7d e4 00          	cmpl   $0x0,-0x1c(%ebp)
  10030f:	7f e3                	jg     1002f4 <vprintfmt+0x1cf>
  100311:	eb 38                	jmp    10034b <vprintfmt+0x226>
  100313:	83 7d ec 00          	cmpl   $0x0,-0x14(%ebp)
  100317:	74 1f                	je     100338 <vprintfmt+0x213>
  100319:	83 fb 1f             	cmp    $0x1f,%ebx
  10031c:	7e 05                	jle    100323 <vprintfmt+0x1fe>
  10031e:	83 fb 7e             	cmp    $0x7e,%ebx
  100321:	7e 15                	jle    100338 <vprintfmt+0x213>
  100323:	8b 45 0c             	mov    0xc(%ebp),%eax
  100326:	89 44 24 04          	mov    %eax,0x4(%esp)
  10032a:	c7 04 24 3f 00 00 00 	movl   $0x3f,(%esp)
  100331:	8b 45 08             	mov    0x8(%ebp),%eax
  100334:	ff d0                	call   *%eax
  100336:	eb 0f                	jmp    100347 <vprintfmt+0x222>
  100338:	8b 45 0c             	mov    0xc(%ebp),%eax
  10033b:	89 44 24 04          	mov    %eax,0x4(%esp)
  10033f:	89 1c 24             	mov    %ebx,(%esp)
  100342:	8b 45 08             	mov    0x8(%ebp),%eax
  100345:	ff d0                	call   *%eax
  100347:	83 6d e4 01          	subl   $0x1,-0x1c(%ebp)
  10034b:	89 f0                	mov    %esi,%eax
  10034d:	8d 70 01             	lea    0x1(%eax),%esi
  100350:	0f b6 00             	movzbl (%eax),%eax
  100353:	0f be d8             	movsbl %al,%ebx
  100356:	85 db                	test   %ebx,%ebx
  100358:	74 10                	je     10036a <vprintfmt+0x245>
  10035a:	83 7d e8 00          	cmpl   $0x0,-0x18(%ebp)
  10035e:	78 b3                	js     100313 <vprintfmt+0x1ee>
  100360:	83 6d e8 01          	subl   $0x1,-0x18(%ebp)
  100364:	83 7d e8 00          	cmpl   $0x0,-0x18(%ebp)
  100368:	79 a9                	jns    100313 <vprintfmt+0x1ee>
  10036a:	eb 17                	jmp    100383 <vprintfmt+0x25e>
  10036c:	8b 45 0c             	mov    0xc(%ebp),%eax
  10036f:	89 44 24 04          	mov    %eax,0x4(%esp)
  100373:	c7 04 24 20 00 00 00 	movl   $0x20,(%esp)
  10037a:	8b 45 08             	mov    0x8(%ebp),%eax
  10037d:	ff d0                	call   *%eax
  10037f:	83 6d e4 01          	subl   $0x1,-0x1c(%ebp)
  100383:	83 7d e4 00          	cmpl   $0x0,-0x1c(%ebp)
  100387:	7f e3                	jg     10036c <vprintfmt+0x247>
  100389:	e9 86 01 00 00       	jmp    100514 <vprintfmt+0x3ef>
  10038e:	8b 45 e0             	mov    -0x20(%ebp),%eax
  100391:	89 44 24 04          	mov    %eax,0x4(%esp)
  100395:	8d 45 14             	lea    0x14(%ebp),%eax
  100398:	89 04 24             	mov    %eax,(%esp)
  10039b:	e8 3e fd ff ff       	call   1000de <getint>
  1003a0:	89 45 f0             	mov    %eax,-0x10(%ebp)
  1003a3:	89 55 f4             	mov    %edx,-0xc(%ebp)
  1003a6:	8b 45 f0             	mov    -0x10(%ebp),%eax
  1003a9:	8b 55 f4             	mov    -0xc(%ebp),%edx
  1003ac:	85 d2                	test   %edx,%edx
  1003ae:	79 26                	jns    1003d6 <vprintfmt+0x2b1>
  1003b0:	8b 45 0c             	mov    0xc(%ebp),%eax
  1003b3:	89 44 24 04          	mov    %eax,0x4(%esp)
  1003b7:	c7 04 24 2d 00 00 00 	movl   $0x2d,(%esp)
  1003be:	8b 45 08             	mov    0x8(%ebp),%eax
  1003c1:	ff d0                	call   *%eax
  1003c3:	8b 45 f0             	mov    -0x10(%ebp),%eax
  1003c6:	8b 55 f4             	mov    -0xc(%ebp),%edx
  1003c9:	f7 d8                	neg    %eax
  1003cb:	83 d2 00             	adc    $0x0,%edx
  1003ce:	f7 da                	neg    %edx
  1003d0:	89 45 f0             	mov    %eax,-0x10(%ebp)
  1003d3:	89 55 f4             	mov    %edx,-0xc(%ebp)
  1003d6:	c7 45 dc 0a 00 00 00 	movl   $0xa,-0x24(%ebp)
  1003dd:	e9 c5 00 00 00       	jmp    1004a7 <vprintfmt+0x382>
  1003e2:	8b 45 e0             	mov    -0x20(%ebp),%eax
  1003e5:	89 44 24 04          	mov    %eax,0x4(%esp)
  1003e9:	8d 45 14             	lea    0x14(%ebp),%eax
  1003ec:	89 04 24             	mov    %eax,(%esp)
  1003ef:	e8 9b fc ff ff       	call   10008f <getuint>
  1003f4:	89 45 f0             	mov    %eax,-0x10(%ebp)
  1003f7:	89 55 f4             	mov    %edx,-0xc(%ebp)
  1003fa:	c7 45 dc 0a 00 00 00 	movl   $0xa,-0x24(%ebp)
  100401:	e9 a1 00 00 00       	jmp    1004a7 <vprintfmt+0x382>
  100406:	8b 45 0c             	mov    0xc(%ebp),%eax
  100409:	89 44 24 04          	mov    %eax,0x4(%esp)
  10040d:	c7 04 24 58 00 00 00 	movl   $0x58,(%esp)
  100414:	8b 45 08             	mov    0x8(%ebp),%eax
  100417:	ff d0                	call   *%eax
  100419:	8b 45 0c             	mov    0xc(%ebp),%eax
  10041c:	89 44 24 04          	mov    %eax,0x4(%esp)
  100420:	c7 04 24 58 00 00 00 	movl   $0x58,(%esp)
  100427:	8b 45 08             	mov    0x8(%ebp),%eax
  10042a:	ff d0                	call   *%eax
  10042c:	8b 45 0c             	mov    0xc(%ebp),%eax
  10042f:	89 44 24 04          	mov    %eax,0x4(%esp)
  100433:	c7 04 24 58 00 00 00 	movl   $0x58,(%esp)
  10043a:	8b 45 08             	mov    0x8(%ebp),%eax
  10043d:	ff d0                	call   *%eax
  10043f:	e9 d0 00 00 00       	jmp    100514 <vprintfmt+0x3ef>
  100444:	8b 45 0c             	mov    0xc(%ebp),%eax
  100447:	89 44 24 04          	mov    %eax,0x4(%esp)
  10044b:	c7 04 24 30 00 00 00 	movl   $0x30,(%esp)
  100452:	8b 45 08             	mov    0x8(%ebp),%eax
  100455:	ff d0                	call   *%eax
  100457:	8b 45 0c             	mov    0xc(%ebp),%eax
  10045a:	89 44 24 04          	mov    %eax,0x4(%esp)
  10045e:	c7 04 24 78 00 00 00 	movl   $0x78,(%esp)
  100465:	8b 45 08             	mov    0x8(%ebp),%eax
  100468:	ff d0                	call   *%eax
  10046a:	8b 45 14             	mov    0x14(%ebp),%eax
  10046d:	8d 50 04             	lea    0x4(%eax),%edx
  100470:	89 55 14             	mov    %edx,0x14(%ebp)
  100473:	8b 00                	mov    (%eax),%eax
  100475:	89 45 f0             	mov    %eax,-0x10(%ebp)
  100478:	c7 45 f4 00 00 00 00 	movl   $0x0,-0xc(%ebp)
  10047f:	c7 45 dc 10 00 00 00 	movl   $0x10,-0x24(%ebp)
  100486:	eb 1f                	jmp    1004a7 <vprintfmt+0x382>
  100488:	8b 45 e0             	mov    -0x20(%ebp),%eax
  10048b:	89 44 24 04          	mov    %eax,0x4(%esp)
  10048f:	8d 45 14             	lea    0x14(%ebp),%eax
  100492:	89 04 24             	mov    %eax,(%esp)
  100495:	e8 f5 fb ff ff       	call   10008f <getuint>
  10049a:	89 45 f0             	mov    %eax,-0x10(%ebp)
  10049d:	89 55 f4             	mov    %edx,-0xc(%ebp)
  1004a0:	c7 45 dc 10 00 00 00 	movl   $0x10,-0x24(%ebp)
  1004a7:	0f be 4d db          	movsbl -0x25(%ebp),%ecx
  1004ab:	8b 55 dc             	mov    -0x24(%ebp),%edx
  1004ae:	8b 45 f0             	mov    -0x10(%ebp),%eax
  1004b1:	89 4c 24 14          	mov    %ecx,0x14(%esp)
  1004b5:	8b 4d e4             	mov    -0x1c(%ebp),%ecx
  1004b8:	89 4c 24 10          	mov    %ecx,0x10(%esp)
  1004bc:	89 54 24 0c          	mov    %edx,0xc(%esp)
  1004c0:	89 44 24 08          	mov    %eax,0x8(%esp)
  1004c4:	8b 45 0c             	mov    0xc(%ebp),%eax
  1004c7:	89 44 24 04          	mov    %eax,0x4(%esp)
  1004cb:	8b 45 08             	mov    0x8(%ebp),%eax
  1004ce:	89 04 24             	mov    %eax,(%esp)
  1004d1:	e8 2a fb ff ff       	call   100000 <printnum>
  1004d6:	eb 3c                	jmp    100514 <vprintfmt+0x3ef>
  1004d8:	8b 45 0c             	mov    0xc(%ebp),%eax
  1004db:	89 44 24 04          	mov    %eax,0x4(%esp)
  1004df:	89 1c 24             	mov    %ebx,(%esp)
  1004e2:	8b 45 08             	mov    0x8(%ebp),%eax
  1004e5:	ff d0                	call   *%eax
  1004e7:	eb 2b                	jmp    100514 <vprintfmt+0x3ef>
  1004e9:	8b 45 0c             	mov    0xc(%ebp),%eax
  1004ec:	89 44 24 04          	mov    %eax,0x4(%esp)
  1004f0:	c7 04 24 25 00 00 00 	movl   $0x25,(%esp)
  1004f7:	8b 45 08             	mov    0x8(%ebp),%eax
  1004fa:	ff d0                	call   *%eax
  1004fc:	83 6d 10 01          	subl   $0x1,0x10(%ebp)
  100500:	eb 04                	jmp    100506 <vprintfmt+0x3e1>
  100502:	83 6d 10 01          	subl   $0x1,0x10(%ebp)
  100506:	8b 45 10             	mov    0x10(%ebp),%eax
  100509:	83 e8 01             	sub    $0x1,%eax
  10050c:	0f b6 00             	movzbl (%eax),%eax
  10050f:	3c 25                	cmp    $0x25,%al
  100511:	75 ef                	jne    100502 <vprintfmt+0x3dd>
  100513:	90                   	nop
  100514:	90                   	nop
  100515:	e9 2d fc ff ff       	jmp    100147 <vprintfmt+0x22>
  10051a:	83 c4 40             	add    $0x40,%esp
  10051d:	5b                   	pop    %ebx
  10051e:	5e                   	pop    %esi
  10051f:	5d                   	pop    %ebp
  100520:	c3                   	ret    

00100521 <printfmt>:
  100521:	55                   	push   %ebp
  100522:	89 e5                	mov    %esp,%ebp
  100524:	83 ec 28             	sub    $0x28,%esp
  100527:	8d 45 14             	lea    0x14(%ebp),%eax
  10052a:	89 45 f4             	mov    %eax,-0xc(%ebp)
  10052d:	8b 45 f4             	mov    -0xc(%ebp),%eax
  100530:	89 44 24 0c          	mov    %eax,0xc(%esp)
  100534:	8b 45 10             	mov    0x10(%ebp),%eax
  100537:	89 44 24 08          	mov    %eax,0x8(%esp)
  10053b:	8b 45 0c             	mov    0xc(%ebp),%eax
  10053e:	89 44 24 04          	mov    %eax,0x4(%esp)
  100542:	8b 45 08             	mov    0x8(%ebp),%eax
  100545:	89 04 24             	mov    %eax,(%esp)
  100548:	e8 d8 fb ff ff       	call   100125 <vprintfmt>
  10054d:	c9                   	leave  
  10054e:	c3                   	ret    

0010054f <syscall>:
  10054f:	55                   	push   %ebp
  100550:	89 e5                	mov    %esp,%ebp
  100552:	53                   	push   %ebx
  100553:	83 ec 10             	sub    $0x10,%esp
  100556:	8d 45 08             	lea    0x8(%ebp),%eax
  100559:	89 45 f4             	mov    %eax,-0xc(%ebp)
  10055c:	8b 45 f4             	mov    -0xc(%ebp),%eax
  10055f:	8b 00                	mov    (%eax),%eax
  100561:	8b 55 f4             	mov    -0xc(%ebp),%edx
  100564:	83 c2 04             	add    $0x4,%edx
  100567:	8b 1a                	mov    (%edx),%ebx
  100569:	8b 55 f4             	mov    -0xc(%ebp),%edx
  10056c:	83 c2 08             	add    $0x8,%edx
  10056f:	8b 0a                	mov    (%edx),%ecx
  100571:	8b 55 f4             	mov    -0xc(%ebp),%edx
  100574:	83 c2 0c             	add    $0xc,%edx
  100577:	8b 12                	mov    (%edx),%edx
  100579:	cd 80                	int    $0x80
  10057b:	89 45 f8             	mov    %eax,-0x8(%ebp)
  10057e:	8b 45 f8             	mov    -0x8(%ebp),%eax
  100581:	83 c4 10             	add    $0x10,%esp
  100584:	5b                   	pop    %ebx
  100585:	5d                   	pop    %ebp
  100586:	c3                   	ret    

00100587 <_exit>:
  100587:	55                   	push   %ebp
  100588:	89 e5                	mov    %esp,%ebp
  10058a:	5d                   	pop    %ebp
  10058b:	c3                   	ret    

0010058c <open>:
  10058c:	55                   	push   %ebp
  10058d:	89 e5                	mov    %esp,%ebp
  10058f:	83 ec 0c             	sub    $0xc,%esp
  100592:	8b 45 0c             	mov    0xc(%ebp),%eax
  100595:	89 44 24 08          	mov    %eax,0x8(%esp)
  100599:	8b 45 08             	mov    0x8(%ebp),%eax
  10059c:	89 44 24 04          	mov    %eax,0x4(%esp)
  1005a0:	c7 04 24 05 00 00 00 	movl   $0x5,(%esp)
  1005a7:	e8 a3 ff ff ff       	call   10054f <syscall>
  1005ac:	c9                   	leave  
  1005ad:	c3                   	ret    

001005ae <read>:
  1005ae:	55                   	push   %ebp
  1005af:	89 e5                	mov    %esp,%ebp
  1005b1:	83 ec 10             	sub    $0x10,%esp
  1005b4:	8b 45 10             	mov    0x10(%ebp),%eax
  1005b7:	89 44 24 0c          	mov    %eax,0xc(%esp)
  1005bb:	8b 45 0c             	mov    0xc(%ebp),%eax
  1005be:	89 44 24 08          	mov    %eax,0x8(%esp)
  1005c2:	8b 45 08             	mov    0x8(%ebp),%eax
  1005c5:	89 44 24 04          	mov    %eax,0x4(%esp)
  1005c9:	c7 04 24 03 00 00 00 	movl   $0x3,(%esp)
  1005d0:	e8 7a ff ff ff       	call   10054f <syscall>
  1005d5:	c9                   	leave  
  1005d6:	c3                   	ret    

001005d7 <write>:
  1005d7:	55                   	push   %ebp
  1005d8:	89 e5                	mov    %esp,%ebp
  1005da:	83 ec 10             	sub    $0x10,%esp
  1005dd:	8b 45 10             	mov    0x10(%ebp),%eax
  1005e0:	89 44 24 0c          	mov    %eax,0xc(%esp)
  1005e4:	8b 45 0c             	mov    0xc(%ebp),%eax
  1005e7:	89 44 24 08          	mov    %eax,0x8(%esp)
  1005eb:	8b 45 08             	mov    0x8(%ebp),%eax
  1005ee:	89 44 24 04          	mov    %eax,0x4(%esp)
  1005f2:	c7 04 24 04 00 00 00 	movl   $0x4,(%esp)
  1005f9:	e8 51 ff ff ff       	call   10054f <syscall>
  1005fe:	c9                   	leave  
  1005ff:	c3                   	ret    

00100600 <lseek>:
  100600:	55                   	push   %ebp
  100601:	89 e5                	mov    %esp,%ebp
  100603:	83 ec 10             	sub    $0x10,%esp
  100606:	8b 45 10             	mov    0x10(%ebp),%eax
  100609:	89 44 24 0c          	mov    %eax,0xc(%esp)
  10060d:	8b 45 0c             	mov    0xc(%ebp),%eax
  100610:	89 44 24 08          	mov    %eax,0x8(%esp)
  100614:	8b 45 08             	mov    0x8(%ebp),%eax
  100617:	89 44 24 04          	mov    %eax,0x4(%esp)
  10061b:	c7 04 24 13 00 00 00 	movl   $0x13,(%esp)
  100622:	e8 28 ff ff ff       	call   10054f <syscall>
  100627:	c9                   	leave  
  100628:	c3                   	ret    

00100629 <sbrk>:
  100629:	55                   	push   %ebp
  10062a:	89 e5                	mov    %esp,%ebp
  10062c:	83 ec 10             	sub    $0x10,%esp
  10062f:	a1 c0 81 2d 00       	mov    0x2d81c0,%eax
  100634:	85 c0                	test   %eax,%eax
  100636:	75 0a                	jne    100642 <sbrk+0x19>
  100638:	c7 05 c0 81 2d 00 b0 	movl   $0x2d8db0,0x2d81c0
  10063f:	8d 2d 00 
  100642:	a1 c0 81 2d 00       	mov    0x2d81c0,%eax
  100647:	89 45 fc             	mov    %eax,-0x4(%ebp)
  10064a:	8b 15 c0 81 2d 00    	mov    0x2d81c0,%edx
  100650:	8b 45 08             	mov    0x8(%ebp),%eax
  100653:	01 d0                	add    %edx,%eax
  100655:	a3 c0 81 2d 00       	mov    %eax,0x2d81c0
  10065a:	8b 45 fc             	mov    -0x4(%ebp),%eax
  10065d:	c9                   	leave  
  10065e:	c3                   	ret    

0010065f <close>:
  10065f:	55                   	push   %ebp
  100660:	89 e5                	mov    %esp,%ebp
  100662:	83 ec 08             	sub    $0x8,%esp
  100665:	8b 45 08             	mov    0x8(%ebp),%eax
  100668:	89 44 24 04          	mov    %eax,0x4(%esp)
  10066c:	c7 04 24 06 00 00 00 	movl   $0x6,(%esp)
  100673:	e8 d7 fe ff ff       	call   10054f <syscall>
  100678:	c9                   	leave  
  100679:	c3                   	ret    

0010067a <fstat>:
  10067a:	55                   	push   %ebp
  10067b:	89 e5                	mov    %esp,%ebp
  10067d:	8b 45 0c             	mov    0xc(%ebp),%eax
  100680:	c7 40 10 00 20 00 00 	movl   $0x2000,0x10(%eax)
  100687:	b8 00 00 00 00       	mov    $0x0,%eax
  10068c:	5d                   	pop    %ebp
  10068d:	c3                   	ret    

0010068e <isatty>:
  10068e:	55                   	push   %ebp
  10068f:	89 e5                	mov    %esp,%ebp
  100691:	b8 00 00 00 00       	mov    $0x0,%eax
  100696:	5d                   	pop    %ebp
  100697:	c3                   	ret    

00100698 <strlen>:
  100698:	55                   	push   %ebp
  100699:	89 e5                	mov    %esp,%ebp
  10069b:	83 ec 10             	sub    $0x10,%esp
  10069e:	c7 45 fc 00 00 00 00 	movl   $0x0,-0x4(%ebp)
  1006a5:	eb 08                	jmp    1006af <strlen+0x17>
  1006a7:	83 45 fc 01          	addl   $0x1,-0x4(%ebp)
  1006ab:	83 45 08 01          	addl   $0x1,0x8(%ebp)
  1006af:	8b 45 08             	mov    0x8(%ebp),%eax
  1006b2:	0f b6 00             	movzbl (%eax),%eax
  1006b5:	84 c0                	test   %al,%al
  1006b7:	75 ee                	jne    1006a7 <strlen+0xf>
  1006b9:	8b 45 fc             	mov    -0x4(%ebp),%eax
  1006bc:	c9                   	leave  
  1006bd:	c3                   	ret    

001006be <strnlen>:
  1006be:	55                   	push   %ebp
  1006bf:	89 e5                	mov    %esp,%ebp
  1006c1:	83 ec 10             	sub    $0x10,%esp
  1006c4:	c7 45 fc 00 00 00 00 	movl   $0x0,-0x4(%ebp)
  1006cb:	eb 0c                	jmp    1006d9 <strnlen+0x1b>
  1006cd:	83 45 fc 01          	addl   $0x1,-0x4(%ebp)
  1006d1:	83 45 08 01          	addl   $0x1,0x8(%ebp)
  1006d5:	83 6d 0c 01          	subl   $0x1,0xc(%ebp)
  1006d9:	83 7d 0c 00          	cmpl   $0x0,0xc(%ebp)
  1006dd:	74 0a                	je     1006e9 <strnlen+0x2b>
  1006df:	8b 45 08             	mov    0x8(%ebp),%eax
  1006e2:	0f b6 00             	movzbl (%eax),%eax
  1006e5:	84 c0                	test   %al,%al
  1006e7:	75 e4                	jne    1006cd <strnlen+0xf>
  1006e9:	8b 45 fc             	mov    -0x4(%ebp),%eax
  1006ec:	c9                   	leave  
  1006ed:	c3                   	ret    

001006ee <strcpy>:
  1006ee:	55                   	push   %ebp
  1006ef:	89 e5                	mov    %esp,%ebp
  1006f1:	83 ec 10             	sub    $0x10,%esp
  1006f4:	8b 45 08             	mov    0x8(%ebp),%eax
  1006f7:	89 45 fc             	mov    %eax,-0x4(%ebp)
  1006fa:	90                   	nop
  1006fb:	8b 45 08             	mov    0x8(%ebp),%eax
  1006fe:	8d 50 01             	lea    0x1(%eax),%edx
  100701:	89 55 08             	mov    %edx,0x8(%ebp)
  100704:	8b 55 0c             	mov    0xc(%ebp),%edx
  100707:	8d 4a 01             	lea    0x1(%edx),%ecx
  10070a:	89 4d 0c             	mov    %ecx,0xc(%ebp)
  10070d:	0f b6 12             	movzbl (%edx),%edx
  100710:	88 10                	mov    %dl,(%eax)
  100712:	0f b6 00             	movzbl (%eax),%eax
  100715:	84 c0                	test   %al,%al
  100717:	75 e2                	jne    1006fb <strcpy+0xd>
  100719:	8b 45 fc             	mov    -0x4(%ebp),%eax
  10071c:	c9                   	leave  
  10071d:	c3                   	ret    

0010071e <strcat>:
  10071e:	55                   	push   %ebp
  10071f:	89 e5                	mov    %esp,%ebp
  100721:	83 ec 18             	sub    $0x18,%esp
  100724:	8b 45 08             	mov    0x8(%ebp),%eax
  100727:	89 04 24             	mov    %eax,(%esp)
  10072a:	e8 69 ff ff ff       	call   100698 <strlen>
  10072f:	89 45 fc             	mov    %eax,-0x4(%ebp)
  100732:	8b 55 fc             	mov    -0x4(%ebp),%edx
  100735:	8b 45 08             	mov    0x8(%ebp),%eax
  100738:	01 c2                	add    %eax,%edx
  10073a:	8b 45 0c             	mov    0xc(%ebp),%eax
  10073d:	89 44 24 04          	mov    %eax,0x4(%esp)
  100741:	89 14 24             	mov    %edx,(%esp)
  100744:	e8 a5 ff ff ff       	call   1006ee <strcpy>
  100749:	8b 45 08             	mov    0x8(%ebp),%eax
  10074c:	c9                   	leave  
  10074d:	c3                   	ret    

0010074e <strncpy>:
  10074e:	55                   	push   %ebp
  10074f:	89 e5                	mov    %esp,%ebp
  100751:	83 ec 10             	sub    $0x10,%esp
  100754:	8b 45 08             	mov    0x8(%ebp),%eax
  100757:	89 45 fc             	mov    %eax,-0x4(%ebp)
  10075a:	c7 45 f8 00 00 00 00 	movl   $0x0,-0x8(%ebp)
  100761:	eb 23                	jmp    100786 <strncpy+0x38>
  100763:	8b 45 08             	mov    0x8(%ebp),%eax
  100766:	8d 50 01             	lea    0x1(%eax),%edx
  100769:	89 55 08             	mov    %edx,0x8(%ebp)
  10076c:	8b 55 0c             	mov    0xc(%ebp),%edx
  10076f:	0f b6 12             	movzbl (%edx),%edx
  100772:	88 10                	mov    %dl,(%eax)
  100774:	8b 45 0c             	mov    0xc(%ebp),%eax
  100777:	0f b6 00             	movzbl (%eax),%eax
  10077a:	84 c0                	test   %al,%al
  10077c:	74 04                	je     100782 <strncpy+0x34>
  10077e:	83 45 0c 01          	addl   $0x1,0xc(%ebp)
  100782:	83 45 f8 01          	addl   $0x1,-0x8(%ebp)
  100786:	8b 45 f8             	mov    -0x8(%ebp),%eax
  100789:	3b 45 10             	cmp    0x10(%ebp),%eax
  10078c:	72 d5                	jb     100763 <strncpy+0x15>
  10078e:	8b 45 fc             	mov    -0x4(%ebp),%eax
  100791:	c9                   	leave  
  100792:	c3                   	ret    

00100793 <strlcpy>:
  100793:	55                   	push   %ebp
  100794:	89 e5                	mov    %esp,%ebp
  100796:	83 ec 10             	sub    $0x10,%esp
  100799:	8b 45 08             	mov    0x8(%ebp),%eax
  10079c:	89 45 fc             	mov    %eax,-0x4(%ebp)
  10079f:	83 7d 10 00          	cmpl   $0x0,0x10(%ebp)
  1007a3:	74 33                	je     1007d8 <strlcpy+0x45>
  1007a5:	eb 17                	jmp    1007be <strlcpy+0x2b>
  1007a7:	8b 45 08             	mov    0x8(%ebp),%eax
  1007aa:	8d 50 01             	lea    0x1(%eax),%edx
  1007ad:	89 55 08             	mov    %edx,0x8(%ebp)
  1007b0:	8b 55 0c             	mov    0xc(%ebp),%edx
  1007b3:	8d 4a 01             	lea    0x1(%edx),%ecx
  1007b6:	89 4d 0c             	mov    %ecx,0xc(%ebp)
  1007b9:	0f b6 12             	movzbl (%edx),%edx
  1007bc:	88 10                	mov    %dl,(%eax)
  1007be:	83 6d 10 01          	subl   $0x1,0x10(%ebp)
  1007c2:	83 7d 10 00          	cmpl   $0x0,0x10(%ebp)
  1007c6:	74 0a                	je     1007d2 <strlcpy+0x3f>
  1007c8:	8b 45 0c             	mov    0xc(%ebp),%eax
  1007cb:	0f b6 00             	movzbl (%eax),%eax
  1007ce:	84 c0                	test   %al,%al
  1007d0:	75 d5                	jne    1007a7 <strlcpy+0x14>
  1007d2:	8b 45 08             	mov    0x8(%ebp),%eax
  1007d5:	c6 00 00             	movb   $0x0,(%eax)
  1007d8:	8b 55 08             	mov    0x8(%ebp),%edx
  1007db:	8b 45 fc             	mov    -0x4(%ebp),%eax
  1007de:	29 c2                	sub    %eax,%edx
  1007e0:	89 d0                	mov    %edx,%eax
  1007e2:	c9                   	leave  
  1007e3:	c3                   	ret    

001007e4 <strcmp>:
  1007e4:	55                   	push   %ebp
  1007e5:	89 e5                	mov    %esp,%ebp
  1007e7:	eb 08                	jmp    1007f1 <strcmp+0xd>
  1007e9:	83 45 08 01          	addl   $0x1,0x8(%ebp)
  1007ed:	83 45 0c 01          	addl   $0x1,0xc(%ebp)
  1007f1:	8b 45 08             	mov    0x8(%ebp),%eax
  1007f4:	0f b6 00             	movzbl (%eax),%eax
  1007f7:	84 c0                	test   %al,%al
  1007f9:	74 10                	je     10080b <strcmp+0x27>
  1007fb:	8b 45 08             	mov    0x8(%ebp),%eax
  1007fe:	0f b6 10             	movzbl (%eax),%edx
  100801:	8b 45 0c             	mov    0xc(%ebp),%eax
  100804:	0f b6 00             	movzbl (%eax),%eax
  100807:	38 c2                	cmp    %al,%dl
  100809:	74 de                	je     1007e9 <strcmp+0x5>
  10080b:	8b 45 08             	mov    0x8(%ebp),%eax
  10080e:	0f b6 00             	movzbl (%eax),%eax
  100811:	0f b6 d0             	movzbl %al,%edx
  100814:	8b 45 0c             	mov    0xc(%ebp),%eax
  100817:	0f b6 00             	movzbl (%eax),%eax
  10081a:	0f b6 c0             	movzbl %al,%eax
  10081d:	29 c2                	sub    %eax,%edx
  10081f:	89 d0                	mov    %edx,%eax
  100821:	5d                   	pop    %ebp
  100822:	c3                   	ret    

00100823 <strncmp>:
  100823:	55                   	push   %ebp
  100824:	89 e5                	mov    %esp,%ebp
  100826:	eb 0c                	jmp    100834 <strncmp+0x11>
  100828:	83 6d 10 01          	subl   $0x1,0x10(%ebp)
  10082c:	83 45 08 01          	addl   $0x1,0x8(%ebp)
  100830:	83 45 0c 01          	addl   $0x1,0xc(%ebp)
  100834:	83 7d 10 00          	cmpl   $0x0,0x10(%ebp)
  100838:	74 1a                	je     100854 <strncmp+0x31>
  10083a:	8b 45 08             	mov    0x8(%ebp),%eax
  10083d:	0f b6 00             	movzbl (%eax),%eax
  100840:	84 c0                	test   %al,%al
  100842:	74 10                	je     100854 <strncmp+0x31>
  100844:	8b 45 08             	mov    0x8(%ebp),%eax
  100847:	0f b6 10             	movzbl (%eax),%edx
  10084a:	8b 45 0c             	mov    0xc(%ebp),%eax
  10084d:	0f b6 00             	movzbl (%eax),%eax
  100850:	38 c2                	cmp    %al,%dl
  100852:	74 d4                	je     100828 <strncmp+0x5>
  100854:	83 7d 10 00          	cmpl   $0x0,0x10(%ebp)
  100858:	75 07                	jne    100861 <strncmp+0x3e>
  10085a:	b8 00 00 00 00       	mov    $0x0,%eax
  10085f:	eb 16                	jmp    100877 <strncmp+0x54>
  100861:	8b 45 08             	mov    0x8(%ebp),%eax
  100864:	0f b6 00             	movzbl (%eax),%eax
  100867:	0f b6 d0             	movzbl %al,%edx
  10086a:	8b 45 0c             	mov    0xc(%ebp),%eax
  10086d:	0f b6 00             	movzbl (%eax),%eax
  100870:	0f b6 c0             	movzbl %al,%eax
  100873:	29 c2                	sub    %eax,%edx
  100875:	89 d0                	mov    %edx,%eax
  100877:	5d                   	pop    %ebp
  100878:	c3                   	ret    

00100879 <strchr>:
  100879:	55                   	push   %ebp
  10087a:	89 e5                	mov    %esp,%ebp
  10087c:	83 ec 04             	sub    $0x4,%esp
  10087f:	8b 45 0c             	mov    0xc(%ebp),%eax
  100882:	88 45 fc             	mov    %al,-0x4(%ebp)
  100885:	eb 14                	jmp    10089b <strchr+0x22>
  100887:	8b 45 08             	mov    0x8(%ebp),%eax
  10088a:	0f b6 00             	movzbl (%eax),%eax
  10088d:	3a 45 fc             	cmp    -0x4(%ebp),%al
  100890:	75 05                	jne    100897 <strchr+0x1e>
  100892:	8b 45 08             	mov    0x8(%ebp),%eax
  100895:	eb 13                	jmp    1008aa <strchr+0x31>
  100897:	83 45 08 01          	addl   $0x1,0x8(%ebp)
  10089b:	8b 45 08             	mov    0x8(%ebp),%eax
  10089e:	0f b6 00             	movzbl (%eax),%eax
  1008a1:	84 c0                	test   %al,%al
  1008a3:	75 e2                	jne    100887 <strchr+0xe>
  1008a5:	b8 00 00 00 00       	mov    $0x0,%eax
  1008aa:	c9                   	leave  
  1008ab:	c3                   	ret    

001008ac <strfind>:
  1008ac:	55                   	push   %ebp
  1008ad:	89 e5                	mov    %esp,%ebp
  1008af:	83 ec 04             	sub    $0x4,%esp
  1008b2:	8b 45 0c             	mov    0xc(%ebp),%eax
  1008b5:	88 45 fc             	mov    %al,-0x4(%ebp)
  1008b8:	eb 11                	jmp    1008cb <strfind+0x1f>
  1008ba:	8b 45 08             	mov    0x8(%ebp),%eax
  1008bd:	0f b6 00             	movzbl (%eax),%eax
  1008c0:	3a 45 fc             	cmp    -0x4(%ebp),%al
  1008c3:	75 02                	jne    1008c7 <strfind+0x1b>
  1008c5:	eb 0e                	jmp    1008d5 <strfind+0x29>
  1008c7:	83 45 08 01          	addl   $0x1,0x8(%ebp)
  1008cb:	8b 45 08             	mov    0x8(%ebp),%eax
  1008ce:	0f b6 00             	movzbl (%eax),%eax
  1008d1:	84 c0                	test   %al,%al
  1008d3:	75 e5                	jne    1008ba <strfind+0xe>
  1008d5:	8b 45 08             	mov    0x8(%ebp),%eax
  1008d8:	c9                   	leave  
  1008d9:	c3                   	ret    

001008da <memset>:
  1008da:	55                   	push   %ebp
  1008db:	89 e5                	mov    %esp,%ebp
  1008dd:	57                   	push   %edi
  1008de:	83 7d 10 00          	cmpl   $0x0,0x10(%ebp)
  1008e2:	75 05                	jne    1008e9 <memset+0xf>
  1008e4:	8b 45 08             	mov    0x8(%ebp),%eax
  1008e7:	eb 5c                	jmp    100945 <memset+0x6b>
  1008e9:	8b 45 08             	mov    0x8(%ebp),%eax
  1008ec:	83 e0 03             	and    $0x3,%eax
  1008ef:	85 c0                	test   %eax,%eax
  1008f1:	75 41                	jne    100934 <memset+0x5a>
  1008f3:	8b 45 10             	mov    0x10(%ebp),%eax
  1008f6:	83 e0 03             	and    $0x3,%eax
  1008f9:	85 c0                	test   %eax,%eax
  1008fb:	75 37                	jne    100934 <memset+0x5a>
  1008fd:	81 65 0c ff 00 00 00 	andl   $0xff,0xc(%ebp)
  100904:	8b 45 0c             	mov    0xc(%ebp),%eax
  100907:	c1 e0 18             	shl    $0x18,%eax
  10090a:	89 c2                	mov    %eax,%edx
  10090c:	8b 45 0c             	mov    0xc(%ebp),%eax
  10090f:	c1 e0 10             	shl    $0x10,%eax
  100912:	09 c2                	or     %eax,%edx
  100914:	8b 45 0c             	mov    0xc(%ebp),%eax
  100917:	c1 e0 08             	shl    $0x8,%eax
  10091a:	09 d0                	or     %edx,%eax
  10091c:	09 45 0c             	or     %eax,0xc(%ebp)
  10091f:	8b 45 10             	mov    0x10(%ebp),%eax
  100922:	c1 e8 02             	shr    $0x2,%eax
  100925:	89 c1                	mov    %eax,%ecx
  100927:	8b 55 08             	mov    0x8(%ebp),%edx
  10092a:	8b 45 0c             	mov    0xc(%ebp),%eax
  10092d:	89 d7                	mov    %edx,%edi
  10092f:	fc                   	cld    
  100930:	f3 ab                	rep stos %eax,%es:(%edi)
  100932:	eb 0e                	jmp    100942 <memset+0x68>
  100934:	8b 55 08             	mov    0x8(%ebp),%edx
  100937:	8b 45 0c             	mov    0xc(%ebp),%eax
  10093a:	8b 4d 10             	mov    0x10(%ebp),%ecx
  10093d:	89 d7                	mov    %edx,%edi
  10093f:	fc                   	cld    
  100940:	f3 aa                	rep stos %al,%es:(%edi)
  100942:	8b 45 08             	mov    0x8(%ebp),%eax
  100945:	5f                   	pop    %edi
  100946:	5d                   	pop    %ebp
  100947:	c3                   	ret    

00100948 <memmove>:
  100948:	55                   	push   %ebp
  100949:	89 e5                	mov    %esp,%ebp
  10094b:	57                   	push   %edi
  10094c:	56                   	push   %esi
  10094d:	53                   	push   %ebx
  10094e:	83 ec 10             	sub    $0x10,%esp
  100951:	8b 45 0c             	mov    0xc(%ebp),%eax
  100954:	89 45 ec             	mov    %eax,-0x14(%ebp)
  100957:	8b 45 08             	mov    0x8(%ebp),%eax
  10095a:	89 45 f0             	mov    %eax,-0x10(%ebp)
  10095d:	8b 45 ec             	mov    -0x14(%ebp),%eax
  100960:	3b 45 f0             	cmp    -0x10(%ebp),%eax
  100963:	73 6d                	jae    1009d2 <memmove+0x8a>
  100965:	8b 45 10             	mov    0x10(%ebp),%eax
  100968:	8b 55 ec             	mov    -0x14(%ebp),%edx
  10096b:	01 d0                	add    %edx,%eax
  10096d:	3b 45 f0             	cmp    -0x10(%ebp),%eax
  100970:	76 60                	jbe    1009d2 <memmove+0x8a>
  100972:	8b 45 10             	mov    0x10(%ebp),%eax
  100975:	01 45 ec             	add    %eax,-0x14(%ebp)
  100978:	8b 45 10             	mov    0x10(%ebp),%eax
  10097b:	01 45 f0             	add    %eax,-0x10(%ebp)
  10097e:	8b 45 ec             	mov    -0x14(%ebp),%eax
  100981:	83 e0 03             	and    $0x3,%eax
  100984:	85 c0                	test   %eax,%eax
  100986:	75 2f                	jne    1009b7 <memmove+0x6f>
  100988:	8b 45 f0             	mov    -0x10(%ebp),%eax
  10098b:	83 e0 03             	and    $0x3,%eax
  10098e:	85 c0                	test   %eax,%eax
  100990:	75 25                	jne    1009b7 <memmove+0x6f>
  100992:	8b 45 10             	mov    0x10(%ebp),%eax
  100995:	83 e0 03             	and    $0x3,%eax
  100998:	85 c0                	test   %eax,%eax
  10099a:	75 1b                	jne    1009b7 <memmove+0x6f>
  10099c:	8b 45 f0             	mov    -0x10(%ebp),%eax
  10099f:	83 e8 04             	sub    $0x4,%eax
  1009a2:	8b 55 ec             	mov    -0x14(%ebp),%edx
  1009a5:	83 ea 04             	sub    $0x4,%edx
  1009a8:	8b 4d 10             	mov    0x10(%ebp),%ecx
  1009ab:	c1 e9 02             	shr    $0x2,%ecx
  1009ae:	89 c7                	mov    %eax,%edi
  1009b0:	89 d6                	mov    %edx,%esi
  1009b2:	fd                   	std    
  1009b3:	f3 a5                	rep movsl %ds:(%esi),%es:(%edi)
  1009b5:	eb 18                	jmp    1009cf <memmove+0x87>
  1009b7:	8b 45 f0             	mov    -0x10(%ebp),%eax
  1009ba:	8d 50 ff             	lea    -0x1(%eax),%edx
  1009bd:	8b 45 ec             	mov    -0x14(%ebp),%eax
  1009c0:	8d 58 ff             	lea    -0x1(%eax),%ebx
  1009c3:	8b 45 10             	mov    0x10(%ebp),%eax
  1009c6:	89 d7                	mov    %edx,%edi
  1009c8:	89 de                	mov    %ebx,%esi
  1009ca:	89 c1                	mov    %eax,%ecx
  1009cc:	fd                   	std    
  1009cd:	f3 a4                	rep movsb %ds:(%esi),%es:(%edi)
  1009cf:	fc                   	cld    
  1009d0:	eb 45                	jmp    100a17 <memmove+0xcf>
  1009d2:	8b 45 ec             	mov    -0x14(%ebp),%eax
  1009d5:	83 e0 03             	and    $0x3,%eax
  1009d8:	85 c0                	test   %eax,%eax
  1009da:	75 2b                	jne    100a07 <memmove+0xbf>
  1009dc:	8b 45 f0             	mov    -0x10(%ebp),%eax
  1009df:	83 e0 03             	and    $0x3,%eax
  1009e2:	85 c0                	test   %eax,%eax
  1009e4:	75 21                	jne    100a07 <memmove+0xbf>
  1009e6:	8b 45 10             	mov    0x10(%ebp),%eax
  1009e9:	83 e0 03             	and    $0x3,%eax
  1009ec:	85 c0                	test   %eax,%eax
  1009ee:	75 17                	jne    100a07 <memmove+0xbf>
  1009f0:	8b 45 10             	mov    0x10(%ebp),%eax
  1009f3:	c1 e8 02             	shr    $0x2,%eax
  1009f6:	89 c1                	mov    %eax,%ecx
  1009f8:	8b 45 f0             	mov    -0x10(%ebp),%eax
  1009fb:	8b 55 ec             	mov    -0x14(%ebp),%edx
  1009fe:	89 c7                	mov    %eax,%edi
  100a00:	89 d6                	mov    %edx,%esi
  100a02:	fc                   	cld    
  100a03:	f3 a5                	rep movsl %ds:(%esi),%es:(%edi)
  100a05:	eb 10                	jmp    100a17 <memmove+0xcf>
  100a07:	8b 45 f0             	mov    -0x10(%ebp),%eax
  100a0a:	8b 55 ec             	mov    -0x14(%ebp),%edx
  100a0d:	8b 4d 10             	mov    0x10(%ebp),%ecx
  100a10:	89 c7                	mov    %eax,%edi
  100a12:	89 d6                	mov    %edx,%esi
  100a14:	fc                   	cld    
  100a15:	f3 a4                	rep movsb %ds:(%esi),%es:(%edi)
  100a17:	8b 45 08             	mov    0x8(%ebp),%eax
  100a1a:	83 c4 10             	add    $0x10,%esp
  100a1d:	5b                   	pop    %ebx
  100a1e:	5e                   	pop    %esi
  100a1f:	5f                   	pop    %edi
  100a20:	5d                   	pop    %ebp
  100a21:	c3                   	ret    

00100a22 <memcpy>:
  100a22:	55                   	push   %ebp
  100a23:	89 e5                	mov    %esp,%ebp
  100a25:	83 ec 0c             	sub    $0xc,%esp
  100a28:	8b 45 10             	mov    0x10(%ebp),%eax
  100a2b:	89 44 24 08          	mov    %eax,0x8(%esp)
  100a2f:	8b 45 0c             	mov    0xc(%ebp),%eax
  100a32:	89 44 24 04          	mov    %eax,0x4(%esp)
  100a36:	8b 45 08             	mov    0x8(%ebp),%eax
  100a39:	89 04 24             	mov    %eax,(%esp)
  100a3c:	e8 07 ff ff ff       	call   100948 <memmove>
  100a41:	c9                   	leave  
  100a42:	c3                   	ret    

00100a43 <memcmp>:
  100a43:	55                   	push   %ebp
  100a44:	89 e5                	mov    %esp,%ebp
  100a46:	83 ec 10             	sub    $0x10,%esp
  100a49:	8b 45 08             	mov    0x8(%ebp),%eax
  100a4c:	89 45 f8             	mov    %eax,-0x8(%ebp)
  100a4f:	8b 45 0c             	mov    0xc(%ebp),%eax
  100a52:	89 45 fc             	mov    %eax,-0x4(%ebp)
  100a55:	eb 30                	jmp    100a87 <memcmp+0x44>
  100a57:	8b 45 f8             	mov    -0x8(%ebp),%eax
  100a5a:	0f b6 10             	movzbl (%eax),%edx
  100a5d:	8b 45 fc             	mov    -0x4(%ebp),%eax
  100a60:	0f b6 00             	movzbl (%eax),%eax
  100a63:	38 c2                	cmp    %al,%dl
  100a65:	74 18                	je     100a7f <memcmp+0x3c>
  100a67:	8b 45 f8             	mov    -0x8(%ebp),%eax
  100a6a:	0f b6 00             	movzbl (%eax),%eax
  100a6d:	0f b6 d0             	movzbl %al,%edx
  100a70:	8b 45 fc             	mov    -0x4(%ebp),%eax
  100a73:	0f b6 00             	movzbl (%eax),%eax
  100a76:	0f b6 c0             	movzbl %al,%eax
  100a79:	29 c2                	sub    %eax,%edx
  100a7b:	89 d0                	mov    %edx,%eax
  100a7d:	eb 1a                	jmp    100a99 <memcmp+0x56>
  100a7f:	83 45 f8 01          	addl   $0x1,-0x8(%ebp)
  100a83:	83 45 fc 01          	addl   $0x1,-0x4(%ebp)
  100a87:	8b 45 10             	mov    0x10(%ebp),%eax
  100a8a:	8d 50 ff             	lea    -0x1(%eax),%edx
  100a8d:	89 55 10             	mov    %edx,0x10(%ebp)
  100a90:	85 c0                	test   %eax,%eax
  100a92:	75 c3                	jne    100a57 <memcmp+0x14>
  100a94:	b8 00 00 00 00       	mov    $0x0,%eax
  100a99:	c9                   	leave  
  100a9a:	c3                   	ret    

00100a9b <memfind>:
  100a9b:	55                   	push   %ebp
  100a9c:	89 e5                	mov    %esp,%ebp
  100a9e:	83 ec 10             	sub    $0x10,%esp
  100aa1:	8b 45 10             	mov    0x10(%ebp),%eax
  100aa4:	8b 55 08             	mov    0x8(%ebp),%edx
  100aa7:	01 d0                	add    %edx,%eax
  100aa9:	89 45 fc             	mov    %eax,-0x4(%ebp)
  100aac:	eb 13                	jmp    100ac1 <memfind+0x26>
  100aae:	8b 45 08             	mov    0x8(%ebp),%eax
  100ab1:	0f b6 10             	movzbl (%eax),%edx
  100ab4:	8b 45 0c             	mov    0xc(%ebp),%eax
  100ab7:	38 c2                	cmp    %al,%dl
  100ab9:	75 02                	jne    100abd <memfind+0x22>
  100abb:	eb 0c                	jmp    100ac9 <memfind+0x2e>
  100abd:	83 45 08 01          	addl   $0x1,0x8(%ebp)
  100ac1:	8b 45 08             	mov    0x8(%ebp),%eax
  100ac4:	3b 45 fc             	cmp    -0x4(%ebp),%eax
  100ac7:	72 e5                	jb     100aae <memfind+0x13>
  100ac9:	8b 45 08             	mov    0x8(%ebp),%eax
  100acc:	c9                   	leave  
  100acd:	c3                   	ret    

00100ace <strtol>:
  100ace:	55                   	push   %ebp
  100acf:	89 e5                	mov    %esp,%ebp
  100ad1:	83 ec 10             	sub    $0x10,%esp
  100ad4:	c7 45 f4 00 00 00 00 	movl   $0x0,-0xc(%ebp)
  100adb:	c7 45 f8 00 00 00 00 	movl   $0x0,-0x8(%ebp)
  100ae2:	eb 04                	jmp    100ae8 <strtol+0x1a>
  100ae4:	83 45 08 01          	addl   $0x1,0x8(%ebp)
  100ae8:	8b 45 08             	mov    0x8(%ebp),%eax
  100aeb:	0f b6 00             	movzbl (%eax),%eax
  100aee:	3c 20                	cmp    $0x20,%al
  100af0:	74 f2                	je     100ae4 <strtol+0x16>
  100af2:	8b 45 08             	mov    0x8(%ebp),%eax
  100af5:	0f b6 00             	movzbl (%eax),%eax
  100af8:	3c 09                	cmp    $0x9,%al
  100afa:	74 e8                	je     100ae4 <strtol+0x16>
  100afc:	8b 45 08             	mov    0x8(%ebp),%eax
  100aff:	0f b6 00             	movzbl (%eax),%eax
  100b02:	3c 2b                	cmp    $0x2b,%al
  100b04:	75 06                	jne    100b0c <strtol+0x3e>
  100b06:	83 45 08 01          	addl   $0x1,0x8(%ebp)
  100b0a:	eb 15                	jmp    100b21 <strtol+0x53>
  100b0c:	8b 45 08             	mov    0x8(%ebp),%eax
  100b0f:	0f b6 00             	movzbl (%eax),%eax
  100b12:	3c 2d                	cmp    $0x2d,%al
  100b14:	75 0b                	jne    100b21 <strtol+0x53>
  100b16:	83 45 08 01          	addl   $0x1,0x8(%ebp)
  100b1a:	c7 45 f4 01 00 00 00 	movl   $0x1,-0xc(%ebp)
  100b21:	83 7d 10 00          	cmpl   $0x0,0x10(%ebp)
  100b25:	74 06                	je     100b2d <strtol+0x5f>
  100b27:	83 7d 10 10          	cmpl   $0x10,0x10(%ebp)
  100b2b:	75 24                	jne    100b51 <strtol+0x83>
  100b2d:	8b 45 08             	mov    0x8(%ebp),%eax
  100b30:	0f b6 00             	movzbl (%eax),%eax
  100b33:	3c 30                	cmp    $0x30,%al
  100b35:	75 1a                	jne    100b51 <strtol+0x83>
  100b37:	8b 45 08             	mov    0x8(%ebp),%eax
  100b3a:	83 c0 01             	add    $0x1,%eax
  100b3d:	0f b6 00             	movzbl (%eax),%eax
  100b40:	3c 78                	cmp    $0x78,%al
  100b42:	75 0d                	jne    100b51 <strtol+0x83>
  100b44:	83 45 08 02          	addl   $0x2,0x8(%ebp)
  100b48:	c7 45 10 10 00 00 00 	movl   $0x10,0x10(%ebp)
  100b4f:	eb 2a                	jmp    100b7b <strtol+0xad>
  100b51:	83 7d 10 00          	cmpl   $0x0,0x10(%ebp)
  100b55:	75 17                	jne    100b6e <strtol+0xa0>
  100b57:	8b 45 08             	mov    0x8(%ebp),%eax
  100b5a:	0f b6 00             	movzbl (%eax),%eax
  100b5d:	3c 30                	cmp    $0x30,%al
  100b5f:	75 0d                	jne    100b6e <strtol+0xa0>
  100b61:	83 45 08 01          	addl   $0x1,0x8(%ebp)
  100b65:	c7 45 10 08 00 00 00 	movl   $0x8,0x10(%ebp)
  100b6c:	eb 0d                	jmp    100b7b <strtol+0xad>
  100b6e:	83 7d 10 00          	cmpl   $0x0,0x10(%ebp)
  100b72:	75 07                	jne    100b7b <strtol+0xad>
  100b74:	c7 45 10 0a 00 00 00 	movl   $0xa,0x10(%ebp)
  100b7b:	8b 45 08             	mov    0x8(%ebp),%eax
  100b7e:	0f b6 00             	movzbl (%eax),%eax
  100b81:	3c 2f                	cmp    $0x2f,%al
  100b83:	7e 1b                	jle    100ba0 <strtol+0xd2>
  100b85:	8b 45 08             	mov    0x8(%ebp),%eax
  100b88:	0f b6 00             	movzbl (%eax),%eax
  100b8b:	3c 39                	cmp    $0x39,%al
  100b8d:	7f 11                	jg     100ba0 <strtol+0xd2>
  100b8f:	8b 45 08             	mov    0x8(%ebp),%eax
  100b92:	0f b6 00             	movzbl (%eax),%eax
  100b95:	0f be c0             	movsbl %al,%eax
  100b98:	83 e8 30             	sub    $0x30,%eax
  100b9b:	89 45 fc             	mov    %eax,-0x4(%ebp)
  100b9e:	eb 48                	jmp    100be8 <strtol+0x11a>
  100ba0:	8b 45 08             	mov    0x8(%ebp),%eax
  100ba3:	0f b6 00             	movzbl (%eax),%eax
  100ba6:	3c 60                	cmp    $0x60,%al
  100ba8:	7e 1b                	jle    100bc5 <strtol+0xf7>
  100baa:	8b 45 08             	mov    0x8(%ebp),%eax
  100bad:	0f b6 00             	movzbl (%eax),%eax
  100bb0:	3c 7a                	cmp    $0x7a,%al
  100bb2:	7f 11                	jg     100bc5 <strtol+0xf7>
  100bb4:	8b 45 08             	mov    0x8(%ebp),%eax
  100bb7:	0f b6 00             	movzbl (%eax),%eax
  100bba:	0f be c0             	movsbl %al,%eax
  100bbd:	83 e8 57             	sub    $0x57,%eax
  100bc0:	89 45 fc             	mov    %eax,-0x4(%ebp)
  100bc3:	eb 23                	jmp    100be8 <strtol+0x11a>
  100bc5:	8b 45 08             	mov    0x8(%ebp),%eax
  100bc8:	0f b6 00             	movzbl (%eax),%eax
  100bcb:	3c 40                	cmp    $0x40,%al
  100bcd:	7e 3d                	jle    100c0c <strtol+0x13e>
  100bcf:	8b 45 08             	mov    0x8(%ebp),%eax
  100bd2:	0f b6 00             	movzbl (%eax),%eax
  100bd5:	3c 5a                	cmp    $0x5a,%al
  100bd7:	7f 33                	jg     100c0c <strtol+0x13e>
  100bd9:	8b 45 08             	mov    0x8(%ebp),%eax
  100bdc:	0f b6 00             	movzbl (%eax),%eax
  100bdf:	0f be c0             	movsbl %al,%eax
  100be2:	83 e8 37             	sub    $0x37,%eax
  100be5:	89 45 fc             	mov    %eax,-0x4(%ebp)
  100be8:	8b 45 fc             	mov    -0x4(%ebp),%eax
  100beb:	3b 45 10             	cmp    0x10(%ebp),%eax
  100bee:	7c 02                	jl     100bf2 <strtol+0x124>
  100bf0:	eb 1a                	jmp    100c0c <strtol+0x13e>
  100bf2:	83 45 08 01          	addl   $0x1,0x8(%ebp)
  100bf6:	8b 45 f8             	mov    -0x8(%ebp),%eax
  100bf9:	0f af 45 10          	imul   0x10(%ebp),%eax
  100bfd:	89 c2                	mov    %eax,%edx
  100bff:	8b 45 fc             	mov    -0x4(%ebp),%eax
  100c02:	01 d0                	add    %edx,%eax
  100c04:	89 45 f8             	mov    %eax,-0x8(%ebp)
  100c07:	e9 6f ff ff ff       	jmp    100b7b <strtol+0xad>
  100c0c:	83 7d 0c 00          	cmpl   $0x0,0xc(%ebp)
  100c10:	74 08                	je     100c1a <strtol+0x14c>
  100c12:	8b 45 0c             	mov    0xc(%ebp),%eax
  100c15:	8b 55 08             	mov    0x8(%ebp),%edx
  100c18:	89 10                	mov    %edx,(%eax)
  100c1a:	83 7d f4 00          	cmpl   $0x0,-0xc(%ebp)
  100c1e:	74 07                	je     100c27 <strtol+0x159>
  100c20:	8b 45 f8             	mov    -0x8(%ebp),%eax
  100c23:	f7 d8                	neg    %eax
  100c25:	eb 03                	jmp    100c2a <strtol+0x15c>
  100c27:	8b 45 f8             	mov    -0x8(%ebp),%eax
  100c2a:	c9                   	leave  
  100c2b:	c3                   	ret    

00100c2c <putch>:
  100c2c:	55                   	push   %ebp
  100c2d:	89 e5                	mov    %esp,%ebp
  100c2f:	83 ec 18             	sub    $0x18,%esp
  100c32:	8b 45 08             	mov    0x8(%ebp),%eax
  100c35:	89 04 24             	mov    %eax,(%esp)
  100c38:	e8 a5 0f 00 00       	call   101be2 <cputchar>
  100c3d:	83 45 0c 04          	addl   $0x4,0xc(%ebp)
  100c41:	c9                   	leave  
  100c42:	c3                   	ret    

00100c43 <vcprintk>:
  100c43:	55                   	push   %ebp
  100c44:	89 e5                	mov    %esp,%ebp
  100c46:	83 ec 28             	sub    $0x28,%esp
  100c49:	c7 45 f4 00 00 00 00 	movl   $0x0,-0xc(%ebp)
  100c50:	8b 45 0c             	mov    0xc(%ebp),%eax
  100c53:	89 44 24 0c          	mov    %eax,0xc(%esp)
  100c57:	8b 45 08             	mov    0x8(%ebp),%eax
  100c5a:	89 44 24 08          	mov    %eax,0x8(%esp)
  100c5e:	8d 45 f4             	lea    -0xc(%ebp),%eax
  100c61:	89 44 24 04          	mov    %eax,0x4(%esp)
  100c65:	c7 04 24 2c 0c 10 00 	movl   $0x100c2c,(%esp)
  100c6c:	e8 b4 f4 ff ff       	call   100125 <vprintfmt>
  100c71:	8b 45 f4             	mov    -0xc(%ebp),%eax
  100c74:	c9                   	leave  
  100c75:	c3                   	ret    

00100c76 <printk>:
  100c76:	55                   	push   %ebp
  100c77:	89 e5                	mov    %esp,%ebp
  100c79:	83 ec 28             	sub    $0x28,%esp
  100c7c:	8d 45 0c             	lea    0xc(%ebp),%eax
  100c7f:	89 45 f0             	mov    %eax,-0x10(%ebp)
  100c82:	8b 45 f0             	mov    -0x10(%ebp),%eax
  100c85:	89 44 24 04          	mov    %eax,0x4(%esp)
  100c89:	8b 45 08             	mov    0x8(%ebp),%eax
  100c8c:	89 04 24             	mov    %eax,(%esp)
  100c8f:	e8 af ff ff ff       	call   100c43 <vcprintk>
  100c94:	89 45 f4             	mov    %eax,-0xc(%ebp)
  100c97:	8b 45 f4             	mov    -0xc(%ebp),%eax
  100c9a:	c9                   	leave  
  100c9b:	c3                   	ret    

00100c9c <add_irq_handle>:
  100c9c:	55                   	push   %ebp
  100c9d:	89 e5                	mov    %esp,%ebp
  100c9f:	83 ec 18             	sub    $0x18,%esp
  100ca2:	8b 45 0c             	mov    0xc(%ebp),%eax
  100ca5:	89 44 24 08          	mov    %eax,0x8(%esp)
  100ca9:	8b 45 08             	mov    0x8(%ebp),%eax
  100cac:	89 44 24 04          	mov    %eax,0x4(%esp)
  100cb0:	c7 04 24 00 00 00 00 	movl   $0x0,(%esp)
  100cb7:	e8 93 f8 ff ff       	call   10054f <syscall>
  100cbc:	c9                   	leave  
  100cbd:	c3                   	ret    

00100cbe <game_init>:
  100cbe:	55                   	push   %ebp
  100cbf:	89 e5                	mov    %esp,%ebp
  100cc1:	83 ec 18             	sub    $0x18,%esp
  100cc4:	e8 e5 03 00 00       	call   1010ae <init_timer>
  100cc9:	e8 a4 09 00 00       	call   101672 <init_i8259>
  100cce:	e8 d2 0b 00 00       	call   1018a5 <init_serial>
  100cd3:	c7 44 24 04 0c 11 10 	movl   $0x10110c,0x4(%esp)
  100cda:	00 
  100cdb:	c7 04 24 00 00 00 00 	movl   $0x0,(%esp)
  100ce2:	e8 b5 ff ff ff       	call   100c9c <add_irq_handle>
  100ce7:	c7 04 24 fc 1e 10 00 	movl   $0x101efc,(%esp)
  100cee:	e8 83 ff ff ff       	call   100c76 <printk>
  100cf3:	e8 16 02 00 00       	call   100f0e <init_vga>
  100cf8:	eb fe                	jmp    100cf8 <game_init+0x3a>

00100cfa <testprintk>:
  100cfa:	55                   	push   %ebp
  100cfb:	89 e5                	mov    %esp,%ebp
  100cfd:	83 ec 28             	sub    $0x28,%esp
  100d00:	c7 04 24 04 1f 10 00 	movl   $0x101f04,(%esp)
  100d07:	e8 6a ff ff ff       	call   100c76 <printk>
  100d0c:	c7 04 24 1a 1f 10 00 	movl   $0x101f1a,(%esp)
  100d13:	e8 5e ff ff ff       	call   100c76 <printk>
  100d18:	c7 04 24 34 1f 10 00 	movl   $0x101f34,(%esp)
  100d1f:	e8 52 ff ff ff       	call   100c76 <printk>
  100d24:	c7 04 24 70 1f 10 00 	movl   $0x101f70,(%esp)
  100d2b:	e8 46 ff ff ff       	call   100c76 <printk>
  100d30:	c7 04 24 a4 1f 10 00 	movl   $0x101fa4,(%esp)
  100d37:	e8 3a ff ff ff       	call   100c76 <printk>
  100d3c:	c7 04 24 20 20 10 00 	movl   $0x102020,(%esp)
  100d43:	e8 2e ff ff ff       	call   100c76 <printk>
  100d48:	c7 04 24 41 20 10 00 	movl   $0x102041,(%esp)
  100d4f:	e8 22 ff ff ff       	call   100c76 <printk>
  100d54:	c7 04 24 60 20 10 00 	movl   $0x102060,(%esp)
  100d5b:	e8 16 ff ff ff       	call   100c76 <printk>
  100d60:	c7 04 24 34 1f 10 00 	movl   $0x101f34,(%esp)
  100d67:	e8 0a ff ff ff       	call   100c76 <printk>
  100d6c:	c7 04 24 df 20 10 00 	movl   $0x1020df,(%esp)
  100d73:	e8 fe fe ff ff       	call   100c76 <printk>
  100d78:	c7 04 24 f0 20 10 00 	movl   $0x1020f0,(%esp)
  100d7f:	e8 f2 fe ff ff       	call   100c76 <printk>
  100d84:	c7 44 24 14 29 21 10 	movl   $0x102129,0x14(%esp)
  100d8b:	00 
  100d8c:	c7 44 24 10 74 00 00 	movl   $0x74,0x10(%esp)
  100d93:	00 
  100d94:	c7 44 24 0c 2b 21 10 	movl   $0x10212b,0xc(%esp)
  100d9b:	00 
  100d9c:	c7 44 24 08 2f 21 10 	movl   $0x10212f,0x8(%esp)
  100da3:	00 
  100da4:	c7 44 24 04 30 21 10 	movl   $0x102130,0x4(%esp)
  100dab:	00 
  100dac:	c7 04 24 37 21 10 00 	movl   $0x102137,(%esp)
  100db3:	e8 be fe ff ff       	call   100c76 <printk>
  100db8:	c7 44 24 14 62 00 00 	movl   $0x62,0x14(%esp)
  100dbf:	00 
  100dc0:	c7 44 24 10 61 00 00 	movl   $0x61,0x10(%esp)
  100dc7:	00 
  100dc8:	c7 44 24 0c 6c 00 00 	movl   $0x6c,0xc(%esp)
  100dcf:	00 
  100dd0:	c7 44 24 08 53 00 00 	movl   $0x53,0x8(%esp)
  100dd7:	00 
  100dd8:	c7 44 24 04 4f 00 00 	movl   $0x4f,0x4(%esp)
  100ddf:	00 
  100de0:	c7 04 24 49 21 10 00 	movl   $0x102149,(%esp)
  100de7:	e8 8a fe ff ff       	call   100c76 <printk>
  100dec:	c7 44 24 18 00 00 10 	movl   $0x100000,0x18(%esp)
  100df3:	00 
  100df4:	c7 44 24 14 58 21 10 	movl   $0x102158,0x14(%esp)
  100dfb:	00 
  100dfc:	c7 44 24 10 00 00 10 	movl   $0x100000,0x10(%esp)
  100e03:	00 
  100e04:	c7 44 24 0c 90 21 10 	movl   $0x102190,0xc(%esp)
  100e0b:	00 
  100e0c:	c7 44 24 08 bd 21 10 	movl   $0x1021bd,0x8(%esp)
  100e13:	00 
  100e14:	c7 44 24 04 c6 21 10 	movl   $0x1021c6,0x4(%esp)
  100e1b:	00 
  100e1c:	c7 04 24 cc 21 10 00 	movl   $0x1021cc,(%esp)
  100e23:	e8 4e fe ff ff       	call   100c76 <printk>
  100e28:	c7 04 24 20 20 10 00 	movl   $0x102020,(%esp)
  100e2f:	e8 42 fe ff ff       	call   100c76 <printk>
  100e34:	c7 04 24 41 20 10 00 	movl   $0x102041,(%esp)
  100e3b:	e8 36 fe ff ff       	call   100c76 <printk>
  100e40:	c7 44 24 18 18 db 00 	movl   $0xdb18,0x18(%esp)
  100e47:	00 
  100e48:	c7 44 24 14 c8 01 00 	movl   $0x1c8,0x14(%esp)
  100e4f:	00 
  100e50:	c7 44 24 10 7b 00 00 	movl   $0x7b,0x10(%esp)
  100e57:	00 
  100e58:	c7 44 24 0c 02 00 00 	movl   $0x2,0xc(%esp)
  100e5f:	00 
  100e60:	c7 44 24 08 01 00 00 	movl   $0x1,0x8(%esp)
  100e67:	00 
  100e68:	c7 44 24 04 01 00 00 	movl   $0x1,0x4(%esp)
  100e6f:	00 
  100e70:	c7 04 24 f1 21 10 00 	movl   $0x1021f1,(%esp)
  100e77:	e8 fa fd ff ff       	call   100c76 <printk>
  100e7c:	c7 44 24 18 8e 8e 01 	movl   $0x18e8e,0x18(%esp)
  100e83:	00 
  100e84:	c7 44 24 14 00 80 ff 	movl   $0xffff8000,0x14(%esp)
  100e8b:	ff 
  100e8c:	c7 44 24 10 01 df ce 	movl   $0xabcedf01,0x10(%esp)
  100e93:	ab 
  100e94:	c7 44 24 0c 00 00 00 	movl   $0x80000000,0xc(%esp)
  100e9b:	80 
  100e9c:	c7 44 24 08 ff ff ff 	movl   $0xffffffff,0x8(%esp)
  100ea3:	ff 
  100ea4:	c7 44 24 04 00 00 00 	movl   $0x0,0x4(%esp)
  100eab:	00 
  100eac:	c7 04 24 0d 22 10 00 	movl   $0x10220d,(%esp)
  100eb3:	e8 be fd ff ff       	call   100c76 <printk>
  100eb8:	c7 44 24 18 8e 8e 01 	movl   $0x18e8e,0x18(%esp)
  100ebf:	00 
  100ec0:	c7 44 24 14 00 80 ff 	movl   $0xffff8000,0x14(%esp)
  100ec7:	ff 
  100ec8:	c7 44 24 10 01 df ce 	movl   $0xabcedf01,0x10(%esp)
  100ecf:	ab 
  100ed0:	c7 44 24 0c 00 00 00 	movl   $0x80000000,0xc(%esp)
  100ed7:	80 
  100ed8:	c7 44 24 08 ff ff ff 	movl   $0xffffffff,0x8(%esp)
  100edf:	ff 
  100ee0:	c7 44 24 04 00 00 00 	movl   $0x0,0x4(%esp)
  100ee7:	00 
  100ee8:	c7 04 24 25 22 10 00 	movl   $0x102225,(%esp)
  100eef:	e8 82 fd ff ff       	call   100c76 <printk>
  100ef4:	c7 04 24 f0 20 10 00 	movl   $0x1020f0,(%esp)
  100efb:	e8 76 fd ff ff       	call   100c76 <printk>
  100f00:	c7 04 24 3d 22 10 00 	movl   $0x10223d,(%esp)
  100f07:	e8 6a fd ff ff       	call   100c76 <printk>
  100f0c:	c9                   	leave  
  100f0d:	c3                   	ret    

00100f0e <init_vga>:
  100f0e:	55                   	push   %ebp
  100f0f:	89 e5                	mov    %esp,%ebp
  100f11:	83 ec 28             	sub    $0x28,%esp
  100f14:	a1 00 7c 2d 00       	mov    0x2d7c00,%eax
  100f19:	8b 40 28             	mov    0x28(%eax),%eax
  100f1c:	a3 ac 8d 2d 00       	mov    %eax,0x2d8dac
  100f21:	c7 45 e0 00 00 00 00 	movl   $0x0,-0x20(%ebp)
  100f28:	eb 66                	jmp    100f90 <init_vga+0x82>
  100f2a:	8b 0d ac 8d 2d 00    	mov    0x2d8dac,%ecx
  100f30:	8b 55 e0             	mov    -0x20(%ebp),%edx
  100f33:	89 d0                	mov    %edx,%eax
  100f35:	01 c0                	add    %eax,%eax
  100f37:	01 d0                	add    %edx,%eax
  100f39:	8d 14 01             	lea    (%ecx,%eax,1),%edx
  100f3c:	8b 45 e0             	mov    -0x20(%ebp),%eax
  100f3f:	8b 04 85 00 30 10 00 	mov    0x103000(,%eax,4),%eax
  100f46:	88 02                	mov    %al,(%edx)
  100f48:	8b 0d ac 8d 2d 00    	mov    0x2d8dac,%ecx
  100f4e:	8b 55 e0             	mov    -0x20(%ebp),%edx
  100f51:	89 d0                	mov    %edx,%eax
  100f53:	01 c0                	add    %eax,%eax
  100f55:	01 d0                	add    %edx,%eax
  100f57:	8d 14 01             	lea    (%ecx,%eax,1),%edx
  100f5a:	8b 45 e0             	mov    -0x20(%ebp),%eax
  100f5d:	8b 04 85 00 30 10 00 	mov    0x103000(,%eax,4),%eax
  100f64:	c1 f8 08             	sar    $0x8,%eax
  100f67:	88 42 01             	mov    %al,0x1(%edx)
  100f6a:	8b 0d ac 8d 2d 00    	mov    0x2d8dac,%ecx
  100f70:	8b 55 e0             	mov    -0x20(%ebp),%edx
  100f73:	89 d0                	mov    %edx,%eax
  100f75:	01 c0                	add    %eax,%eax
  100f77:	01 d0                	add    %edx,%eax
  100f79:	8d 14 01             	lea    (%ecx,%eax,1),%edx
  100f7c:	8b 45 e0             	mov    -0x20(%ebp),%eax
  100f7f:	8b 04 85 00 30 10 00 	mov    0x103000(,%eax,4),%eax
  100f86:	c1 f8 10             	sar    $0x10,%eax
  100f89:	88 42 02             	mov    %al,0x2(%edx)
  100f8c:	83 45 e0 01          	addl   $0x1,-0x20(%ebp)
  100f90:	81 7d e0 ff 52 07 00 	cmpl   $0x752ff,-0x20(%ebp)
  100f97:	7e 91                	jle    100f2a <init_vga+0x1c>
  100f99:	c7 45 e8 0a 00 00 00 	movl   $0xa,-0x18(%ebp)
  100fa0:	c7 45 ec 0a 00 00 00 	movl   $0xa,-0x14(%ebp)
  100fa7:	c7 45 f0 32 00 00 00 	movl   $0x32,-0x10(%ebp)
  100fae:	c7 45 f4 05 00 00 00 	movl   $0x5,-0xc(%ebp)
  100fb5:	e8 a5 0b 00 00       	call   101b5f <cons_getc>
  100fba:	88 45 df             	mov    %al,-0x21(%ebp)
  100fbd:	80 7d df 77          	cmpb   $0x77,-0x21(%ebp)
  100fc1:	75 0c                	jne    100fcf <init_vga+0xc1>
  100fc3:	83 7d e8 00          	cmpl   $0x0,-0x18(%ebp)
  100fc7:	7e 06                	jle    100fcf <init_vga+0xc1>
  100fc9:	8b 45 f4             	mov    -0xc(%ebp),%eax
  100fcc:	29 45 e8             	sub    %eax,-0x18(%ebp)
  100fcf:	80 7d df 73          	cmpb   $0x73,-0x21(%ebp)
  100fd3:	75 0f                	jne    100fe4 <init_vga+0xd6>
  100fd5:	81 7d e8 57 02 00 00 	cmpl   $0x257,-0x18(%ebp)
  100fdc:	7f 06                	jg     100fe4 <init_vga+0xd6>
  100fde:	8b 45 f4             	mov    -0xc(%ebp),%eax
  100fe1:	01 45 e8             	add    %eax,-0x18(%ebp)
  100fe4:	80 7d df 61          	cmpb   $0x61,-0x21(%ebp)
  100fe8:	75 0c                	jne    100ff6 <init_vga+0xe8>
  100fea:	83 7d ec 00          	cmpl   $0x0,-0x14(%ebp)
  100fee:	7e 06                	jle    100ff6 <init_vga+0xe8>
  100ff0:	8b 45 f4             	mov    -0xc(%ebp),%eax
  100ff3:	29 45 ec             	sub    %eax,-0x14(%ebp)
  100ff6:	80 7d df 64          	cmpb   $0x64,-0x21(%ebp)
  100ffa:	75 0f                	jne    10100b <init_vga+0xfd>
  100ffc:	81 7d e8 1f 03 00 00 	cmpl   $0x31f,-0x18(%ebp)
  101003:	7f 06                	jg     10100b <init_vga+0xfd>
  101005:	8b 45 f4             	mov    -0xc(%ebp),%eax
  101008:	01 45 ec             	add    %eax,-0x14(%ebp)
  10100b:	8b 45 e8             	mov    -0x18(%ebp),%eax
  10100e:	89 45 e0             	mov    %eax,-0x20(%ebp)
  101011:	e9 82 00 00 00       	jmp    101098 <init_vga+0x18a>
  101016:	8b 45 ec             	mov    -0x14(%ebp),%eax
  101019:	89 45 e4             	mov    %eax,-0x1c(%ebp)
  10101c:	eb 69                	jmp    101087 <init_vga+0x179>
  10101e:	8b 0d ac 8d 2d 00    	mov    0x2d8dac,%ecx
  101024:	8b 45 e0             	mov    -0x20(%ebp),%eax
  101027:	69 d0 20 03 00 00    	imul   $0x320,%eax,%edx
  10102d:	8b 45 e4             	mov    -0x1c(%ebp),%eax
  101030:	01 d0                	add    %edx,%eax
  101032:	89 c2                	mov    %eax,%edx
  101034:	89 d0                	mov    %edx,%eax
  101036:	01 c0                	add    %eax,%eax
  101038:	01 d0                	add    %edx,%eax
  10103a:	01 c8                	add    %ecx,%eax
  10103c:	c6 00 ff             	movb   $0xff,(%eax)
  10103f:	8b 0d ac 8d 2d 00    	mov    0x2d8dac,%ecx
  101045:	8b 45 e0             	mov    -0x20(%ebp),%eax
  101048:	69 d0 20 03 00 00    	imul   $0x320,%eax,%edx
  10104e:	8b 45 e4             	mov    -0x1c(%ebp),%eax
  101051:	01 d0                	add    %edx,%eax
  101053:	89 c2                	mov    %eax,%edx
  101055:	89 d0                	mov    %edx,%eax
  101057:	01 c0                	add    %eax,%eax
  101059:	01 d0                	add    %edx,%eax
  10105b:	01 c8                	add    %ecx,%eax
  10105d:	c6 40 01 00          	movb   $0x0,0x1(%eax)
  101061:	8b 0d ac 8d 2d 00    	mov    0x2d8dac,%ecx
  101067:	8b 45 e0             	mov    -0x20(%ebp),%eax
  10106a:	69 d0 20 03 00 00    	imul   $0x320,%eax,%edx
  101070:	8b 45 e4             	mov    -0x1c(%ebp),%eax
  101073:	01 d0                	add    %edx,%eax
  101075:	89 c2                	mov    %eax,%edx
  101077:	89 d0                	mov    %edx,%eax
  101079:	01 c0                	add    %eax,%eax
  10107b:	01 d0                	add    %edx,%eax
  10107d:	01 c8                	add    %ecx,%eax
  10107f:	c6 40 02 00          	movb   $0x0,0x2(%eax)
  101083:	83 45 e4 01          	addl   $0x1,-0x1c(%ebp)
  101087:	8b 45 f0             	mov    -0x10(%ebp),%eax
  10108a:	8b 55 ec             	mov    -0x14(%ebp),%edx
  10108d:	01 d0                	add    %edx,%eax
  10108f:	3b 45 e4             	cmp    -0x1c(%ebp),%eax
  101092:	7f 8a                	jg     10101e <init_vga+0x110>
  101094:	83 45 e0 01          	addl   $0x1,-0x20(%ebp)
  101098:	8b 45 f0             	mov    -0x10(%ebp),%eax
  10109b:	8b 55 e8             	mov    -0x18(%ebp),%edx
  10109e:	01 d0                	add    %edx,%eax
  1010a0:	3b 45 e0             	cmp    -0x20(%ebp),%eax
  1010a3:	0f 8f 6d ff ff ff    	jg     101016 <init_vga+0x108>
  1010a9:	e9 07 ff ff ff       	jmp    100fb5 <init_vga+0xa7>

001010ae <init_timer>:
  1010ae:	55                   	push   %ebp
  1010af:	89 e5                	mov    %esp,%ebp
  1010b1:	83 ec 20             	sub    $0x20,%esp
  1010b4:	c7 45 f0 9b 2e 00 00 	movl   $0x2e9b,-0x10(%ebp)
  1010bb:	0f b6 05 04 7c 2d 00 	movzbl 0x2d7c04,%eax
  1010c2:	0f b6 c0             	movzbl %al,%eax
  1010c5:	c7 45 f4 43 00 00 00 	movl   $0x43,-0xc(%ebp)
  1010cc:	88 45 ed             	mov    %al,-0x13(%ebp)
  1010cf:	0f b6 45 ed          	movzbl -0x13(%ebp),%eax
  1010d3:	8b 55 f4             	mov    -0xc(%ebp),%edx
  1010d6:	ee                   	out    %al,(%dx)
  1010d7:	8b 45 f0             	mov    -0x10(%ebp),%eax
  1010da:	0f b6 c0             	movzbl %al,%eax
  1010dd:	c7 45 f8 40 00 00 00 	movl   $0x40,-0x8(%ebp)
  1010e4:	88 45 ee             	mov    %al,-0x12(%ebp)
  1010e7:	0f b6 45 ee          	movzbl -0x12(%ebp),%eax
  1010eb:	8b 55 f8             	mov    -0x8(%ebp),%edx
  1010ee:	ee                   	out    %al,(%dx)
  1010ef:	8b 45 f0             	mov    -0x10(%ebp),%eax
  1010f2:	c1 f8 08             	sar    $0x8,%eax
  1010f5:	0f b6 c0             	movzbl %al,%eax
  1010f8:	c7 45 fc 40 00 00 00 	movl   $0x40,-0x4(%ebp)
  1010ff:	88 45 ef             	mov    %al,-0x11(%ebp)
  101102:	0f b6 45 ef          	movzbl -0x11(%ebp),%eax
  101106:	8b 55 fc             	mov    -0x4(%ebp),%edx
  101109:	ee                   	out    %al,(%dx)
  10110a:	c9                   	leave  
  10110b:	c3                   	ret    

0010110c <timer_event>:
  10110c:	55                   	push   %ebp
  10110d:	89 e5                	mov    %esp,%ebp
  10110f:	a1 c4 81 2d 00       	mov    0x2d81c4,%eax
  101114:	83 c0 01             	add    $0x1,%eax
  101117:	a3 c4 81 2d 00       	mov    %eax,0x2d81c4
  10111c:	5d                   	pop    %ebp
  10111d:	c3                   	ret    

0010111e <do_syscall>:
  10111e:	55                   	push   %ebp
  10111f:	89 e5                	mov    %esp,%ebp
  101121:	83 ec 18             	sub    $0x18,%esp
  101124:	8b 45 08             	mov    0x8(%ebp),%eax
  101127:	8b 40 1c             	mov    0x1c(%eax),%eax
  10112a:	89 44 24 04          	mov    %eax,0x4(%esp)
  10112e:	c7 04 24 58 22 10 00 	movl   $0x102258,(%esp)
  101135:	e8 3c fb ff ff       	call   100c76 <printk>
  10113a:	c9                   	leave  
  10113b:	c3                   	ret    

0010113c <press_key>:
  10113c:	55                   	push   %ebp
  10113d:	89 e5                	mov    %esp,%ebp
  10113f:	83 ec 10             	sub    $0x10,%esp
  101142:	c7 45 fc 00 00 00 00 	movl   $0x0,-0x4(%ebp)
  101149:	eb 1e                	jmp    101169 <press_key+0x2d>
  10114b:	8b 45 fc             	mov    -0x4(%ebp),%eax
  10114e:	8b 04 85 20 7c 2d 00 	mov    0x2d7c20(,%eax,4),%eax
  101155:	3b 45 08             	cmp    0x8(%ebp),%eax
  101158:	75 0b                	jne    101165 <press_key+0x29>
  10115a:	8b 45 fc             	mov    -0x4(%ebp),%eax
  10115d:	05 c8 81 2d 00       	add    $0x2d81c8,%eax
  101162:	c6 00 01             	movb   $0x1,(%eax)
  101165:	83 45 fc 01          	addl   $0x1,-0x4(%ebp)
  101169:	83 7d fc 19          	cmpl   $0x19,-0x4(%ebp)
  10116d:	7e dc                	jle    10114b <press_key+0xf>
  10116f:	c9                   	leave  
  101170:	c3                   	ret    

00101171 <release_key>:
  101171:	55                   	push   %ebp
  101172:	89 e5                	mov    %esp,%ebp
  101174:	8b 45 08             	mov    0x8(%ebp),%eax
  101177:	05 c8 81 2d 00       	add    $0x2d81c8,%eax
  10117c:	c6 00 00             	movb   $0x0,(%eax)
  10117f:	5d                   	pop    %ebp
  101180:	c3                   	ret    

00101181 <query_key>:
  101181:	55                   	push   %ebp
  101182:	89 e5                	mov    %esp,%ebp
  101184:	8b 45 08             	mov    0x8(%ebp),%eax
  101187:	05 c8 81 2d 00       	add    $0x2d81c8,%eax
  10118c:	0f b6 00             	movzbl (%eax),%eax
  10118f:	5d                   	pop    %ebp
  101190:	c3                   	ret    

00101191 <last_key_code>:
  101191:	55                   	push   %ebp
  101192:	89 e5                	mov    %esp,%ebp
  101194:	a1 e4 81 2d 00       	mov    0x2d81e4,%eax
  101199:	5d                   	pop    %ebp
  10119a:	c3                   	ret    

0010119b <kbd_event>:
  10119b:	55                   	push   %ebp
  10119c:	89 e5                	mov    %esp,%ebp
  10119e:	83 ec 28             	sub    $0x28,%esp
  1011a1:	c7 45 f4 60 00 00 00 	movl   $0x60,-0xc(%ebp)
  1011a8:	8b 45 f4             	mov    -0xc(%ebp),%eax
  1011ab:	89 c2                	mov    %eax,%edx
  1011ad:	ec                   	in     (%dx),%al
  1011ae:	88 45 f3             	mov    %al,-0xd(%ebp)
  1011b1:	0f b6 45 f3          	movzbl -0xd(%ebp),%eax
  1011b5:	0f b6 c0             	movzbl %al,%eax
  1011b8:	a3 e4 81 2d 00       	mov    %eax,0x2d81e4
  1011bd:	a1 e4 81 2d 00       	mov    0x2d81e4,%eax
  1011c2:	89 44 24 04          	mov    %eax,0x4(%esp)
  1011c6:	c7 04 24 77 22 10 00 	movl   $0x102277,(%esp)
  1011cd:	e8 a4 fa ff ff       	call   100c76 <printk>
  1011d2:	a1 e4 81 2d 00       	mov    0x2d81e4,%eax
  1011d7:	89 04 24             	mov    %eax,(%esp)
  1011da:	e8 5d ff ff ff       	call   10113c <press_key>
  1011df:	c9                   	leave  
  1011e0:	c3                   	ret    

001011e1 <write_idtr>:
  1011e1:	55                   	push   %ebp
  1011e2:	89 e5                	mov    %esp,%ebp
  1011e4:	8b 45 0c             	mov    0xc(%ebp),%eax
  1011e7:	83 e8 01             	sub    $0x1,%eax
  1011ea:	66 a3 00 8a 2d 00    	mov    %ax,0x2d8a00
  1011f0:	8b 45 08             	mov    0x8(%ebp),%eax
  1011f3:	66 a3 02 8a 2d 00    	mov    %ax,0x2d8a02
  1011f9:	8b 45 08             	mov    0x8(%ebp),%eax
  1011fc:	c1 e8 10             	shr    $0x10,%eax
  1011ff:	66 a3 04 8a 2d 00    	mov    %ax,0x2d8a04
  101205:	b8 00 8a 2d 00       	mov    $0x2d8a00,%eax
  10120a:	0f 01 18             	lidtl  (%eax)
  10120d:	5d                   	pop    %ebp
  10120e:	c3                   	ret    

0010120f <set_intr>:
  10120f:	55                   	push   %ebp
  101210:	89 e5                	mov    %esp,%ebp
  101212:	8b 45 10             	mov    0x10(%ebp),%eax
  101215:	89 c2                	mov    %eax,%edx
  101217:	8b 45 08             	mov    0x8(%ebp),%eax
  10121a:	66 89 10             	mov    %dx,(%eax)
  10121d:	8b 45 0c             	mov    0xc(%ebp),%eax
  101220:	89 c2                	mov    %eax,%edx
  101222:	8b 45 08             	mov    0x8(%ebp),%eax
  101225:	66 89 50 02          	mov    %dx,0x2(%eax)
  101229:	8b 45 08             	mov    0x8(%ebp),%eax
  10122c:	0f b6 50 04          	movzbl 0x4(%eax),%edx
  101230:	83 e2 1f             	and    $0x1f,%edx
  101233:	88 50 04             	mov    %dl,0x4(%eax)
  101236:	8b 45 08             	mov    0x8(%ebp),%eax
  101239:	0f b6 40 04          	movzbl 0x4(%eax),%eax
  10123d:	c0 e8 05             	shr    $0x5,%al
  101240:	83 e0 1f             	and    $0x1f,%eax
  101243:	89 c2                	mov    %eax,%edx
  101245:	8b 45 08             	mov    0x8(%ebp),%eax
  101248:	89 d1                	mov    %edx,%ecx
  10124a:	83 e1 1f             	and    $0x1f,%ecx
  10124d:	0f b6 50 04          	movzbl 0x4(%eax),%edx
  101251:	83 e2 e0             	and    $0xffffffe0,%edx
  101254:	09 ca                	or     %ecx,%edx
  101256:	88 50 04             	mov    %dl,0x4(%eax)
  101259:	8b 45 08             	mov    0x8(%ebp),%eax
  10125c:	0f b6 50 05          	movzbl 0x5(%eax),%edx
  101260:	83 e2 f0             	and    $0xfffffff0,%edx
  101263:	83 ca 0e             	or     $0xe,%edx
  101266:	88 50 05             	mov    %dl,0x5(%eax)
  101269:	8b 45 08             	mov    0x8(%ebp),%eax
  10126c:	0f b6 50 05          	movzbl 0x5(%eax),%edx
  101270:	83 e2 ef             	and    $0xffffffef,%edx
  101273:	88 50 05             	mov    %dl,0x5(%eax)
  101276:	8b 45 14             	mov    0x14(%ebp),%eax
  101279:	83 e0 03             	and    $0x3,%eax
  10127c:	89 c2                	mov    %eax,%edx
  10127e:	8b 45 08             	mov    0x8(%ebp),%eax
  101281:	83 e2 03             	and    $0x3,%edx
  101284:	89 d1                	mov    %edx,%ecx
  101286:	c1 e1 05             	shl    $0x5,%ecx
  101289:	0f b6 50 05          	movzbl 0x5(%eax),%edx
  10128d:	83 e2 9f             	and    $0xffffff9f,%edx
  101290:	09 ca                	or     %ecx,%edx
  101292:	88 50 05             	mov    %dl,0x5(%eax)
  101295:	8b 45 08             	mov    0x8(%ebp),%eax
  101298:	0f b6 50 05          	movzbl 0x5(%eax),%edx
  10129c:	83 ca 80             	or     $0xffffff80,%edx
  10129f:	88 50 05             	mov    %dl,0x5(%eax)
  1012a2:	8b 45 10             	mov    0x10(%ebp),%eax
  1012a5:	c1 e8 10             	shr    $0x10,%eax
  1012a8:	89 c2                	mov    %eax,%edx
  1012aa:	8b 45 08             	mov    0x8(%ebp),%eax
  1012ad:	66 89 50 06          	mov    %dx,0x6(%eax)
  1012b1:	5d                   	pop    %ebp
  1012b2:	c3                   	ret    

001012b3 <set_trap>:
  1012b3:	55                   	push   %ebp
  1012b4:	89 e5                	mov    %esp,%ebp
  1012b6:	8b 45 10             	mov    0x10(%ebp),%eax
  1012b9:	89 c2                	mov    %eax,%edx
  1012bb:	8b 45 08             	mov    0x8(%ebp),%eax
  1012be:	66 89 10             	mov    %dx,(%eax)
  1012c1:	8b 45 0c             	mov    0xc(%ebp),%eax
  1012c4:	89 c2                	mov    %eax,%edx
  1012c6:	8b 45 08             	mov    0x8(%ebp),%eax
  1012c9:	66 89 50 02          	mov    %dx,0x2(%eax)
  1012cd:	8b 45 08             	mov    0x8(%ebp),%eax
  1012d0:	0f b6 50 04          	movzbl 0x4(%eax),%edx
  1012d4:	83 e2 1f             	and    $0x1f,%edx
  1012d7:	88 50 04             	mov    %dl,0x4(%eax)
  1012da:	8b 45 08             	mov    0x8(%ebp),%eax
  1012dd:	0f b6 40 04          	movzbl 0x4(%eax),%eax
  1012e1:	c0 e8 05             	shr    $0x5,%al
  1012e4:	83 e0 1f             	and    $0x1f,%eax
  1012e7:	89 c2                	mov    %eax,%edx
  1012e9:	8b 45 08             	mov    0x8(%ebp),%eax
  1012ec:	89 d1                	mov    %edx,%ecx
  1012ee:	83 e1 1f             	and    $0x1f,%ecx
  1012f1:	0f b6 50 04          	movzbl 0x4(%eax),%edx
  1012f5:	83 e2 e0             	and    $0xffffffe0,%edx
  1012f8:	09 ca                	or     %ecx,%edx
  1012fa:	88 50 04             	mov    %dl,0x4(%eax)
  1012fd:	8b 45 08             	mov    0x8(%ebp),%eax
  101300:	0f b6 50 05          	movzbl 0x5(%eax),%edx
  101304:	83 ca 0f             	or     $0xf,%edx
  101307:	88 50 05             	mov    %dl,0x5(%eax)
  10130a:	8b 45 08             	mov    0x8(%ebp),%eax
  10130d:	0f b6 50 05          	movzbl 0x5(%eax),%edx
  101311:	83 e2 ef             	and    $0xffffffef,%edx
  101314:	88 50 05             	mov    %dl,0x5(%eax)
  101317:	8b 45 14             	mov    0x14(%ebp),%eax
  10131a:	83 e0 03             	and    $0x3,%eax
  10131d:	89 c2                	mov    %eax,%edx
  10131f:	8b 45 08             	mov    0x8(%ebp),%eax
  101322:	83 e2 03             	and    $0x3,%edx
  101325:	89 d1                	mov    %edx,%ecx
  101327:	c1 e1 05             	shl    $0x5,%ecx
  10132a:	0f b6 50 05          	movzbl 0x5(%eax),%edx
  10132e:	83 e2 9f             	and    $0xffffff9f,%edx
  101331:	09 ca                	or     %ecx,%edx
  101333:	88 50 05             	mov    %dl,0x5(%eax)
  101336:	8b 45 08             	mov    0x8(%ebp),%eax
  101339:	0f b6 50 05          	movzbl 0x5(%eax),%edx
  10133d:	83 ca 80             	or     $0xffffff80,%edx
  101340:	88 50 05             	mov    %dl,0x5(%eax)
  101343:	8b 45 10             	mov    0x10(%ebp),%eax
  101346:	c1 e8 10             	shr    $0x10,%eax
  101349:	89 c2                	mov    %eax,%edx
  10134b:	8b 45 08             	mov    0x8(%ebp),%eax
  10134e:	66 89 50 06          	mov    %dx,0x6(%eax)
  101352:	5d                   	pop    %ebp
  101353:	c3                   	ret    

00101354 <init_idt>:
  101354:	55                   	push   %ebp
  101355:	89 e5                	mov    %esp,%ebp
  101357:	83 ec 20             	sub    $0x20,%esp
  10135a:	c7 45 fc 00 00 00 00 	movl   $0x0,-0x4(%ebp)
  101361:	eb 31                	jmp    101394 <init_idt+0x40>
  101363:	b8 c3 1c 10 00       	mov    $0x101cc3,%eax
  101368:	8b 55 fc             	mov    -0x4(%ebp),%edx
  10136b:	c1 e2 03             	shl    $0x3,%edx
  10136e:	81 c2 00 82 2d 00    	add    $0x2d8200,%edx
  101374:	c7 44 24 0c 00 00 00 	movl   $0x0,0xc(%esp)
  10137b:	00 
  10137c:	89 44 24 08          	mov    %eax,0x8(%esp)
  101380:	c7 44 24 04 08 00 00 	movl   $0x8,0x4(%esp)
  101387:	00 
  101388:	89 14 24             	mov    %edx,(%esp)
  10138b:	e8 23 ff ff ff       	call   1012b3 <set_trap>
  101390:	83 45 fc 01          	addl   $0x1,-0x4(%ebp)
  101394:	81 7d fc ff 00 00 00 	cmpl   $0xff,-0x4(%ebp)
  10139b:	7e c6                	jle    101363 <init_idt+0xf>
  10139d:	b8 18 1c 10 00       	mov    $0x101c18,%eax
  1013a2:	c7 44 24 0c 00 00 00 	movl   $0x0,0xc(%esp)
  1013a9:	00 
  1013aa:	89 44 24 08          	mov    %eax,0x8(%esp)
  1013ae:	c7 44 24 04 08 00 00 	movl   $0x8,0x4(%esp)
  1013b5:	00 
  1013b6:	c7 04 24 00 82 2d 00 	movl   $0x2d8200,(%esp)
  1013bd:	e8 f1 fe ff ff       	call   1012b3 <set_trap>
  1013c2:	b8 21 1c 10 00       	mov    $0x101c21,%eax
  1013c7:	c7 44 24 0c 00 00 00 	movl   $0x0,0xc(%esp)
  1013ce:	00 
  1013cf:	89 44 24 08          	mov    %eax,0x8(%esp)
  1013d3:	c7 44 24 04 08 00 00 	movl   $0x8,0x4(%esp)
  1013da:	00 
  1013db:	c7 04 24 08 82 2d 00 	movl   $0x2d8208,(%esp)
  1013e2:	e8 cc fe ff ff       	call   1012b3 <set_trap>
  1013e7:	b8 2a 1c 10 00       	mov    $0x101c2a,%eax
  1013ec:	c7 44 24 0c 00 00 00 	movl   $0x0,0xc(%esp)
  1013f3:	00 
  1013f4:	89 44 24 08          	mov    %eax,0x8(%esp)
  1013f8:	c7 44 24 04 08 00 00 	movl   $0x8,0x4(%esp)
  1013ff:	00 
  101400:	c7 04 24 10 82 2d 00 	movl   $0x2d8210,(%esp)
  101407:	e8 a7 fe ff ff       	call   1012b3 <set_trap>
  10140c:	b8 33 1c 10 00       	mov    $0x101c33,%eax
  101411:	c7 44 24 0c 00 00 00 	movl   $0x0,0xc(%esp)
  101418:	00 
  101419:	89 44 24 08          	mov    %eax,0x8(%esp)
  10141d:	c7 44 24 04 08 00 00 	movl   $0x8,0x4(%esp)
  101424:	00 
  101425:	c7 04 24 18 82 2d 00 	movl   $0x2d8218,(%esp)
  10142c:	e8 82 fe ff ff       	call   1012b3 <set_trap>
  101431:	b8 3c 1c 10 00       	mov    $0x101c3c,%eax
  101436:	c7 44 24 0c 00 00 00 	movl   $0x0,0xc(%esp)
  10143d:	00 
  10143e:	89 44 24 08          	mov    %eax,0x8(%esp)
  101442:	c7 44 24 04 08 00 00 	movl   $0x8,0x4(%esp)
  101449:	00 
  10144a:	c7 04 24 20 82 2d 00 	movl   $0x2d8220,(%esp)
  101451:	e8 5d fe ff ff       	call   1012b3 <set_trap>
  101456:	b8 45 1c 10 00       	mov    $0x101c45,%eax
  10145b:	c7 44 24 0c 00 00 00 	movl   $0x0,0xc(%esp)
  101462:	00 
  101463:	89 44 24 08          	mov    %eax,0x8(%esp)
  101467:	c7 44 24 04 08 00 00 	movl   $0x8,0x4(%esp)
  10146e:	00 
  10146f:	c7 04 24 28 82 2d 00 	movl   $0x2d8228,(%esp)
  101476:	e8 38 fe ff ff       	call   1012b3 <set_trap>
  10147b:	b8 4e 1c 10 00       	mov    $0x101c4e,%eax
  101480:	c7 44 24 0c 00 00 00 	movl   $0x0,0xc(%esp)
  101487:	00 
  101488:	89 44 24 08          	mov    %eax,0x8(%esp)
  10148c:	c7 44 24 04 08 00 00 	movl   $0x8,0x4(%esp)
  101493:	00 
  101494:	c7 04 24 30 82 2d 00 	movl   $0x2d8230,(%esp)
  10149b:	e8 13 fe ff ff       	call   1012b3 <set_trap>
  1014a0:	b8 57 1c 10 00       	mov    $0x101c57,%eax
  1014a5:	c7 44 24 0c 00 00 00 	movl   $0x0,0xc(%esp)
  1014ac:	00 
  1014ad:	89 44 24 08          	mov    %eax,0x8(%esp)
  1014b1:	c7 44 24 04 08 00 00 	movl   $0x8,0x4(%esp)
  1014b8:	00 
  1014b9:	c7 04 24 38 82 2d 00 	movl   $0x2d8238,(%esp)
  1014c0:	e8 ee fd ff ff       	call   1012b3 <set_trap>
  1014c5:	b8 60 1c 10 00       	mov    $0x101c60,%eax
  1014ca:	c7 44 24 0c 00 00 00 	movl   $0x0,0xc(%esp)
  1014d1:	00 
  1014d2:	89 44 24 08          	mov    %eax,0x8(%esp)
  1014d6:	c7 44 24 04 08 00 00 	movl   $0x8,0x4(%esp)
  1014dd:	00 
  1014de:	c7 04 24 40 82 2d 00 	movl   $0x2d8240,(%esp)
  1014e5:	e8 c9 fd ff ff       	call   1012b3 <set_trap>
  1014ea:	b8 67 1c 10 00       	mov    $0x101c67,%eax
  1014ef:	c7 44 24 0c 00 00 00 	movl   $0x0,0xc(%esp)
  1014f6:	00 
  1014f7:	89 44 24 08          	mov    %eax,0x8(%esp)
  1014fb:	c7 44 24 04 08 00 00 	movl   $0x8,0x4(%esp)
  101502:	00 
  101503:	c7 04 24 48 82 2d 00 	movl   $0x2d8248,(%esp)
  10150a:	e8 a4 fd ff ff       	call   1012b3 <set_trap>
  10150f:	b8 70 1c 10 00       	mov    $0x101c70,%eax
  101514:	c7 44 24 0c 00 00 00 	movl   $0x0,0xc(%esp)
  10151b:	00 
  10151c:	89 44 24 08          	mov    %eax,0x8(%esp)
  101520:	c7 44 24 04 08 00 00 	movl   $0x8,0x4(%esp)
  101527:	00 
  101528:	c7 04 24 50 82 2d 00 	movl   $0x2d8250,(%esp)
  10152f:	e8 7f fd ff ff       	call   1012b3 <set_trap>
  101534:	b8 77 1c 10 00       	mov    $0x101c77,%eax
  101539:	c7 44 24 0c 00 00 00 	movl   $0x0,0xc(%esp)
  101540:	00 
  101541:	89 44 24 08          	mov    %eax,0x8(%esp)
  101545:	c7 44 24 04 08 00 00 	movl   $0x8,0x4(%esp)
  10154c:	00 
  10154d:	c7 04 24 58 82 2d 00 	movl   $0x2d8258,(%esp)
  101554:	e8 5a fd ff ff       	call   1012b3 <set_trap>
  101559:	b8 7e 1c 10 00       	mov    $0x101c7e,%eax
  10155e:	c7 44 24 0c 00 00 00 	movl   $0x0,0xc(%esp)
  101565:	00 
  101566:	89 44 24 08          	mov    %eax,0x8(%esp)
  10156a:	c7 44 24 04 08 00 00 	movl   $0x8,0x4(%esp)
  101571:	00 
  101572:	c7 04 24 60 82 2d 00 	movl   $0x2d8260,(%esp)
  101579:	e8 35 fd ff ff       	call   1012b3 <set_trap>
  10157e:	b8 85 1c 10 00       	mov    $0x101c85,%eax
  101583:	c7 44 24 0c 00 00 00 	movl   $0x0,0xc(%esp)
  10158a:	00 
  10158b:	89 44 24 08          	mov    %eax,0x8(%esp)
  10158f:	c7 44 24 04 08 00 00 	movl   $0x8,0x4(%esp)
  101596:	00 
  101597:	c7 04 24 68 82 2d 00 	movl   $0x2d8268,(%esp)
  10159e:	e8 10 fd ff ff       	call   1012b3 <set_trap>
  1015a3:	b8 8c 1c 10 00       	mov    $0x101c8c,%eax
  1015a8:	c7 44 24 0c 00 00 00 	movl   $0x0,0xc(%esp)
  1015af:	00 
  1015b0:	89 44 24 08          	mov    %eax,0x8(%esp)
  1015b4:	c7 44 24 04 08 00 00 	movl   $0x8,0x4(%esp)
  1015bb:	00 
  1015bc:	c7 04 24 70 82 2d 00 	movl   $0x2d8270,(%esp)
  1015c3:	e8 eb fc ff ff       	call   1012b3 <set_trap>
  1015c8:	b8 93 1c 10 00       	mov    $0x101c93,%eax
  1015cd:	c7 44 24 0c 03 00 00 	movl   $0x3,0xc(%esp)
  1015d4:	00 
  1015d5:	89 44 24 08          	mov    %eax,0x8(%esp)
  1015d9:	c7 44 24 04 08 00 00 	movl   $0x8,0x4(%esp)
  1015e0:	00 
  1015e1:	c7 04 24 00 86 2d 00 	movl   $0x2d8600,(%esp)
  1015e8:	e8 c6 fc ff ff       	call   1012b3 <set_trap>
  1015ed:	b8 9f 1c 10 00       	mov    $0x101c9f,%eax
  1015f2:	c7 44 24 0c 00 00 00 	movl   $0x0,0xc(%esp)
  1015f9:	00 
  1015fa:	89 44 24 08          	mov    %eax,0x8(%esp)
  1015fe:	c7 44 24 04 08 00 00 	movl   $0x8,0x4(%esp)
  101605:	00 
  101606:	c7 04 24 00 83 2d 00 	movl   $0x2d8300,(%esp)
  10160d:	e8 fd fb ff ff       	call   10120f <set_intr>
  101612:	b8 ab 1c 10 00       	mov    $0x101cab,%eax
  101617:	c7 44 24 0c 00 00 00 	movl   $0x0,0xc(%esp)
  10161e:	00 
  10161f:	89 44 24 08          	mov    %eax,0x8(%esp)
  101623:	c7 44 24 04 08 00 00 	movl   $0x8,0x4(%esp)
  10162a:	00 
  10162b:	c7 04 24 08 83 2d 00 	movl   $0x2d8308,(%esp)
  101632:	e8 d8 fb ff ff       	call   10120f <set_intr>
  101637:	b8 b7 1c 10 00       	mov    $0x101cb7,%eax
  10163c:	c7 44 24 0c 00 00 00 	movl   $0x0,0xc(%esp)
  101643:	00 
  101644:	89 44 24 08          	mov    %eax,0x8(%esp)
  101648:	c7 44 24 04 08 00 00 	movl   $0x8,0x4(%esp)
  10164f:	00 
  101650:	c7 04 24 70 83 2d 00 	movl   $0x2d8370,(%esp)
  101657:	e8 b3 fb ff ff       	call   10120f <set_intr>
  10165c:	c7 44 24 04 00 08 00 	movl   $0x800,0x4(%esp)
  101663:	00 
  101664:	c7 04 24 00 82 2d 00 	movl   $0x2d8200,(%esp)
  10166b:	e8 71 fb ff ff       	call   1011e1 <write_idtr>
  101670:	c9                   	leave  
  101671:	c3                   	ret    

00101672 <init_i8259>:
  101672:	55                   	push   %ebp
  101673:	89 e5                	mov    %esp,%ebp
  101675:	83 ec 50             	sub    $0x50,%esp
  101678:	c7 45 c8 21 00 00 00 	movl   $0x21,-0x38(%ebp)
  10167f:	c6 45 ba ff          	movb   $0xff,-0x46(%ebp)
  101683:	0f b6 45 ba          	movzbl -0x46(%ebp),%eax
  101687:	8b 55 c8             	mov    -0x38(%ebp),%edx
  10168a:	ee                   	out    %al,(%dx)
  10168b:	c7 45 cc a1 00 00 00 	movl   $0xa1,-0x34(%ebp)
  101692:	c6 45 bb ff          	movb   $0xff,-0x45(%ebp)
  101696:	0f b6 45 bb          	movzbl -0x45(%ebp),%eax
  10169a:	8b 55 cc             	mov    -0x34(%ebp),%edx
  10169d:	ee                   	out    %al,(%dx)
  10169e:	c7 45 d0 20 00 00 00 	movl   $0x20,-0x30(%ebp)
  1016a5:	c6 45 bc 11          	movb   $0x11,-0x44(%ebp)
  1016a9:	0f b6 45 bc          	movzbl -0x44(%ebp),%eax
  1016ad:	8b 55 d0             	mov    -0x30(%ebp),%edx
  1016b0:	ee                   	out    %al,(%dx)
  1016b1:	c7 45 d4 21 00 00 00 	movl   $0x21,-0x2c(%ebp)
  1016b8:	c6 45 bd 20          	movb   $0x20,-0x43(%ebp)
  1016bc:	0f b6 45 bd          	movzbl -0x43(%ebp),%eax
  1016c0:	8b 55 d4             	mov    -0x2c(%ebp),%edx
  1016c3:	ee                   	out    %al,(%dx)
  1016c4:	c7 45 d8 21 00 00 00 	movl   $0x21,-0x28(%ebp)
  1016cb:	c6 45 be 04          	movb   $0x4,-0x42(%ebp)
  1016cf:	0f b6 45 be          	movzbl -0x42(%ebp),%eax
  1016d3:	8b 55 d8             	mov    -0x28(%ebp),%edx
  1016d6:	ee                   	out    %al,(%dx)
  1016d7:	c7 45 dc 21 00 00 00 	movl   $0x21,-0x24(%ebp)
  1016de:	c6 45 bf 03          	movb   $0x3,-0x41(%ebp)
  1016e2:	0f b6 45 bf          	movzbl -0x41(%ebp),%eax
  1016e6:	8b 55 dc             	mov    -0x24(%ebp),%edx
  1016e9:	ee                   	out    %al,(%dx)
  1016ea:	c7 45 e0 a0 00 00 00 	movl   $0xa0,-0x20(%ebp)
  1016f1:	c6 45 c0 11          	movb   $0x11,-0x40(%ebp)
  1016f5:	0f b6 45 c0          	movzbl -0x40(%ebp),%eax
  1016f9:	8b 55 e0             	mov    -0x20(%ebp),%edx
  1016fc:	ee                   	out    %al,(%dx)
  1016fd:	c7 45 e4 a1 00 00 00 	movl   $0xa1,-0x1c(%ebp)
  101704:	c6 45 c1 28          	movb   $0x28,-0x3f(%ebp)
  101708:	0f b6 45 c1          	movzbl -0x3f(%ebp),%eax
  10170c:	8b 55 e4             	mov    -0x1c(%ebp),%edx
  10170f:	ee                   	out    %al,(%dx)
  101710:	c7 45 e8 a1 00 00 00 	movl   $0xa1,-0x18(%ebp)
  101717:	c6 45 c2 02          	movb   $0x2,-0x3e(%ebp)
  10171b:	0f b6 45 c2          	movzbl -0x3e(%ebp),%eax
  10171f:	8b 55 e8             	mov    -0x18(%ebp),%edx
  101722:	ee                   	out    %al,(%dx)
  101723:	c7 45 ec a1 00 00 00 	movl   $0xa1,-0x14(%ebp)
  10172a:	c6 45 c3 03          	movb   $0x3,-0x3d(%ebp)
  10172e:	0f b6 45 c3          	movzbl -0x3d(%ebp),%eax
  101732:	8b 55 ec             	mov    -0x14(%ebp),%edx
  101735:	ee                   	out    %al,(%dx)
  101736:	c7 45 f0 20 00 00 00 	movl   $0x20,-0x10(%ebp)
  10173d:	c6 45 c4 68          	movb   $0x68,-0x3c(%ebp)
  101741:	0f b6 45 c4          	movzbl -0x3c(%ebp),%eax
  101745:	8b 55 f0             	mov    -0x10(%ebp),%edx
  101748:	ee                   	out    %al,(%dx)
  101749:	c7 45 f4 20 00 00 00 	movl   $0x20,-0xc(%ebp)
  101750:	c6 45 c5 0a          	movb   $0xa,-0x3b(%ebp)
  101754:	0f b6 45 c5          	movzbl -0x3b(%ebp),%eax
  101758:	8b 55 f4             	mov    -0xc(%ebp),%edx
  10175b:	ee                   	out    %al,(%dx)
  10175c:	c7 45 f8 a0 00 00 00 	movl   $0xa0,-0x8(%ebp)
  101763:	c6 45 c6 68          	movb   $0x68,-0x3a(%ebp)
  101767:	0f b6 45 c6          	movzbl -0x3a(%ebp),%eax
  10176b:	8b 55 f8             	mov    -0x8(%ebp),%edx
  10176e:	ee                   	out    %al,(%dx)
  10176f:	c7 45 fc a0 00 00 00 	movl   $0xa0,-0x4(%ebp)
  101776:	c6 45 c7 0a          	movb   $0xa,-0x39(%ebp)
  10177a:	0f b6 45 c7          	movzbl -0x39(%ebp),%eax
  10177e:	8b 55 fc             	mov    -0x4(%ebp),%edx
  101781:	ee                   	out    %al,(%dx)
  101782:	c9                   	leave  
  101783:	c3                   	ret    

00101784 <add_irq_handle>:
  101784:	55                   	push   %ebp
  101785:	89 e5                	mov    %esp,%ebp
  101787:	83 ec 10             	sub    $0x10,%esp
  10178a:	a1 60 8b 2d 00       	mov    0x2d8b60,%eax
  10178f:	8d 50 01             	lea    0x1(%eax),%edx
  101792:	89 15 60 8b 2d 00    	mov    %edx,0x2d8b60
  101798:	c1 e0 03             	shl    $0x3,%eax
  10179b:	05 20 8a 2d 00       	add    $0x2d8a20,%eax
  1017a0:	89 45 fc             	mov    %eax,-0x4(%ebp)
  1017a3:	8b 45 fc             	mov    -0x4(%ebp),%eax
  1017a6:	8b 55 0c             	mov    0xc(%ebp),%edx
  1017a9:	89 10                	mov    %edx,(%eax)
  1017ab:	8b 45 08             	mov    0x8(%ebp),%eax
  1017ae:	8b 14 85 20 8b 2d 00 	mov    0x2d8b20(,%eax,4),%edx
  1017b5:	8b 45 fc             	mov    -0x4(%ebp),%eax
  1017b8:	89 50 04             	mov    %edx,0x4(%eax)
  1017bb:	8b 45 08             	mov    0x8(%ebp),%eax
  1017be:	8b 55 fc             	mov    -0x4(%ebp),%edx
  1017c1:	89 14 85 20 8b 2d 00 	mov    %edx,0x2d8b20(,%eax,4)
  1017c8:	c9                   	leave  
  1017c9:	c3                   	ret    

001017ca <irq_handle>:
  1017ca:	55                   	push   %ebp
  1017cb:	89 e5                	mov    %esp,%ebp
  1017cd:	83 ec 28             	sub    $0x28,%esp
  1017d0:	8b 45 08             	mov    0x8(%ebp),%eax
  1017d3:	8b 40 20             	mov    0x20(%eax),%eax
  1017d6:	89 45 f0             	mov    %eax,-0x10(%ebp)
  1017d9:	83 7d f0 00          	cmpl   $0x0,-0x10(%ebp)
  1017dd:	79 0e                	jns    1017ed <irq_handle+0x23>
  1017df:	c7 04 24 7c 22 10 00 	movl   $0x10227c,(%esp)
  1017e6:	e8 8b f4 ff ff       	call   100c76 <printk>
  1017eb:	eb 77                	jmp    101864 <irq_handle+0x9a>
  1017ed:	81 7d f0 80 00 00 00 	cmpl   $0x80,-0x10(%ebp)
  1017f4:	75 0d                	jne    101803 <irq_handle+0x39>
  1017f6:	8b 45 08             	mov    0x8(%ebp),%eax
  1017f9:	89 04 24             	mov    %eax,(%esp)
  1017fc:	e8 1d f9 ff ff       	call   10111e <do_syscall>
  101801:	eb 61                	jmp    101864 <irq_handle+0x9a>
  101803:	81 7d f0 e7 03 00 00 	cmpl   $0x3e7,-0x10(%ebp)
  10180a:	7f 1f                	jg     10182b <irq_handle+0x61>
  10180c:	8b 45 08             	mov    0x8(%ebp),%eax
  10180f:	8b 40 28             	mov    0x28(%eax),%eax
  101812:	89 44 24 08          	mov    %eax,0x8(%esp)
  101816:	8b 45 f0             	mov    -0x10(%ebp),%eax
  101819:	89 44 24 04          	mov    %eax,0x4(%esp)
  10181d:	c7 04 24 94 22 10 00 	movl   $0x102294,(%esp)
  101824:	e8 4d f4 ff ff       	call   100c76 <printk>
  101829:	eb 39                	jmp    101864 <irq_handle+0x9a>
  10182b:	81 7d f0 e7 03 00 00 	cmpl   $0x3e7,-0x10(%ebp)
  101832:	7e 30                	jle    101864 <irq_handle+0x9a>
  101834:	8b 45 f0             	mov    -0x10(%ebp),%eax
  101837:	2d e8 03 00 00       	sub    $0x3e8,%eax
  10183c:	89 45 f4             	mov    %eax,-0xc(%ebp)
  10183f:	8b 45 f4             	mov    -0xc(%ebp),%eax
  101842:	8b 04 85 20 8b 2d 00 	mov    0x2d8b20(,%eax,4),%eax
  101849:	89 45 ec             	mov    %eax,-0x14(%ebp)
  10184c:	eb 10                	jmp    10185e <irq_handle+0x94>
  10184e:	8b 45 ec             	mov    -0x14(%ebp),%eax
  101851:	8b 00                	mov    (%eax),%eax
  101853:	ff d0                	call   *%eax
  101855:	8b 45 ec             	mov    -0x14(%ebp),%eax
  101858:	8b 40 04             	mov    0x4(%eax),%eax
  10185b:	89 45 ec             	mov    %eax,-0x14(%ebp)
  10185e:	83 7d ec 00          	cmpl   $0x0,-0x14(%ebp)
  101862:	75 ea                	jne    10184e <irq_handle+0x84>
  101864:	c9                   	leave  
  101865:	c3                   	ret    

00101866 <serial_putc>:
  101866:	55                   	push   %ebp
  101867:	89 e5                	mov    %esp,%ebp
  101869:	83 ec 10             	sub    $0x10,%esp
  10186c:	90                   	nop
  10186d:	c7 45 f8 fd 03 00 00 	movl   $0x3fd,-0x8(%ebp)
  101874:	8b 45 f8             	mov    -0x8(%ebp),%eax
  101877:	89 c2                	mov    %eax,%edx
  101879:	ec                   	in     (%dx),%al
  10187a:	88 45 f6             	mov    %al,-0xa(%ebp)
  10187d:	0f b6 45 f6          	movzbl -0xa(%ebp),%eax
  101881:	0f b6 c0             	movzbl %al,%eax
  101884:	83 e0 20             	and    $0x20,%eax
  101887:	85 c0                	test   %eax,%eax
  101889:	74 e2                	je     10186d <serial_putc+0x7>
  10188b:	8b 45 08             	mov    0x8(%ebp),%eax
  10188e:	0f b6 c0             	movzbl %al,%eax
  101891:	c7 45 fc f8 03 00 00 	movl   $0x3f8,-0x4(%ebp)
  101898:	88 45 f7             	mov    %al,-0x9(%ebp)
  10189b:	0f b6 45 f7          	movzbl -0x9(%ebp),%eax
  10189f:	8b 55 fc             	mov    -0x4(%ebp),%edx
  1018a2:	ee                   	out    %al,(%dx)
  1018a3:	c9                   	leave  
  1018a4:	c3                   	ret    

001018a5 <init_serial>:
  1018a5:	55                   	push   %ebp
  1018a6:	89 e5                	mov    %esp,%ebp
  1018a8:	83 ec 40             	sub    $0x40,%esp
  1018ab:	c7 45 d8 fa 03 00 00 	movl   $0x3fa,-0x28(%ebp)
  1018b2:	c6 45 ce 00          	movb   $0x0,-0x32(%ebp)
  1018b6:	0f b6 45 ce          	movzbl -0x32(%ebp),%eax
  1018ba:	8b 55 d8             	mov    -0x28(%ebp),%edx
  1018bd:	ee                   	out    %al,(%dx)
  1018be:	c7 45 dc fb 03 00 00 	movl   $0x3fb,-0x24(%ebp)
  1018c5:	c6 45 cf 80          	movb   $0x80,-0x31(%ebp)
  1018c9:	0f b6 45 cf          	movzbl -0x31(%ebp),%eax
  1018cd:	8b 55 dc             	mov    -0x24(%ebp),%edx
  1018d0:	ee                   	out    %al,(%dx)
  1018d1:	c7 45 e0 f8 03 00 00 	movl   $0x3f8,-0x20(%ebp)
  1018d8:	c6 45 d0 0c          	movb   $0xc,-0x30(%ebp)
  1018dc:	0f b6 45 d0          	movzbl -0x30(%ebp),%eax
  1018e0:	8b 55 e0             	mov    -0x20(%ebp),%edx
  1018e3:	ee                   	out    %al,(%dx)
  1018e4:	c7 45 e4 f9 03 00 00 	movl   $0x3f9,-0x1c(%ebp)
  1018eb:	c6 45 d1 00          	movb   $0x0,-0x2f(%ebp)
  1018ef:	0f b6 45 d1          	movzbl -0x2f(%ebp),%eax
  1018f3:	8b 55 e4             	mov    -0x1c(%ebp),%edx
  1018f6:	ee                   	out    %al,(%dx)
  1018f7:	c7 45 e8 fb 03 00 00 	movl   $0x3fb,-0x18(%ebp)
  1018fe:	c6 45 d2 03          	movb   $0x3,-0x2e(%ebp)
  101902:	0f b6 45 d2          	movzbl -0x2e(%ebp),%eax
  101906:	8b 55 e8             	mov    -0x18(%ebp),%edx
  101909:	ee                   	out    %al,(%dx)
  10190a:	c7 45 ec fc 03 00 00 	movl   $0x3fc,-0x14(%ebp)
  101911:	c6 45 d3 00          	movb   $0x0,-0x2d(%ebp)
  101915:	0f b6 45 d3          	movzbl -0x2d(%ebp),%eax
  101919:	8b 55 ec             	mov    -0x14(%ebp),%edx
  10191c:	ee                   	out    %al,(%dx)
  10191d:	c7 45 f0 f9 03 00 00 	movl   $0x3f9,-0x10(%ebp)
  101924:	c6 45 d4 01          	movb   $0x1,-0x2c(%ebp)
  101928:	0f b6 45 d4          	movzbl -0x2c(%ebp),%eax
  10192c:	8b 55 f0             	mov    -0x10(%ebp),%edx
  10192f:	ee                   	out    %al,(%dx)
  101930:	c7 45 f4 fd 03 00 00 	movl   $0x3fd,-0xc(%ebp)
  101937:	8b 45 f4             	mov    -0xc(%ebp),%eax
  10193a:	89 c2                	mov    %eax,%edx
  10193c:	ec                   	in     (%dx),%al
  10193d:	88 45 d5             	mov    %al,-0x2b(%ebp)
  101940:	0f b6 45 d5          	movzbl -0x2b(%ebp),%eax
  101944:	3c ff                	cmp    $0xff,%al
  101946:	0f 95 c0             	setne  %al
  101949:	a2 80 8b 2d 00       	mov    %al,0x2d8b80
  10194e:	c7 45 f8 fa 03 00 00 	movl   $0x3fa,-0x8(%ebp)
  101955:	8b 45 f8             	mov    -0x8(%ebp),%eax
  101958:	89 c2                	mov    %eax,%edx
  10195a:	ec                   	in     (%dx),%al
  10195b:	88 45 d6             	mov    %al,-0x2a(%ebp)
  10195e:	c7 45 fc f8 03 00 00 	movl   $0x3f8,-0x4(%ebp)
  101965:	8b 45 fc             	mov    -0x4(%ebp),%eax
  101968:	89 c2                	mov    %eax,%edx
  10196a:	ec                   	in     (%dx),%al
  10196b:	88 45 d7             	mov    %al,-0x29(%ebp)
  10196e:	c9                   	leave  
  10196f:	c3                   	ret    

00101970 <kbd_proc_data>:
  101970:	55                   	push   %ebp
  101971:	89 e5                	mov    %esp,%ebp
  101973:	83 ec 38             	sub    $0x38,%esp
  101976:	c7 45 ec 64 00 00 00 	movl   $0x64,-0x14(%ebp)
  10197d:	8b 45 ec             	mov    -0x14(%ebp),%eax
  101980:	89 c2                	mov    %eax,%edx
  101982:	ec                   	in     (%dx),%al
  101983:	88 45 e5             	mov    %al,-0x1b(%ebp)
  101986:	0f b6 45 e5          	movzbl -0x1b(%ebp),%eax
  10198a:	0f b6 c0             	movzbl %al,%eax
  10198d:	83 e0 01             	and    $0x1,%eax
  101990:	85 c0                	test   %eax,%eax
  101992:	75 0a                	jne    10199e <kbd_proc_data+0x2e>
  101994:	b8 ff ff ff ff       	mov    $0xffffffff,%eax
  101999:	e9 59 01 00 00       	jmp    101af7 <kbd_proc_data+0x187>
  10199e:	c7 45 f0 60 00 00 00 	movl   $0x60,-0x10(%ebp)
  1019a5:	8b 45 f0             	mov    -0x10(%ebp),%eax
  1019a8:	89 c2                	mov    %eax,%edx
  1019aa:	ec                   	in     (%dx),%al
  1019ab:	88 45 e6             	mov    %al,-0x1a(%ebp)
  1019ae:	0f b6 45 e6          	movzbl -0x1a(%ebp),%eax
  1019b2:	88 45 e4             	mov    %al,-0x1c(%ebp)
  1019b5:	80 7d e4 e0          	cmpb   $0xe0,-0x1c(%ebp)
  1019b9:	75 17                	jne    1019d2 <kbd_proc_data+0x62>
  1019bb:	a1 a8 8d 2d 00       	mov    0x2d8da8,%eax
  1019c0:	83 c8 40             	or     $0x40,%eax
  1019c3:	a3 a8 8d 2d 00       	mov    %eax,0x2d8da8
  1019c8:	b8 00 00 00 00       	mov    $0x0,%eax
  1019cd:	e9 25 01 00 00       	jmp    101af7 <kbd_proc_data+0x187>
  1019d2:	0f b6 45 e4          	movzbl -0x1c(%ebp),%eax
  1019d6:	84 c0                	test   %al,%al
  1019d8:	79 47                	jns    101a21 <kbd_proc_data+0xb1>
  1019da:	a1 a8 8d 2d 00       	mov    0x2d8da8,%eax
  1019df:	83 e0 40             	and    $0x40,%eax
  1019e2:	85 c0                	test   %eax,%eax
  1019e4:	75 09                	jne    1019ef <kbd_proc_data+0x7f>
  1019e6:	0f b6 45 e4          	movzbl -0x1c(%ebp),%eax
  1019ea:	83 e0 7f             	and    $0x7f,%eax
  1019ed:	eb 04                	jmp    1019f3 <kbd_proc_data+0x83>
  1019ef:	0f b6 45 e4          	movzbl -0x1c(%ebp),%eax
  1019f3:	88 45 e4             	mov    %al,-0x1c(%ebp)
  1019f6:	0f b6 45 e4          	movzbl -0x1c(%ebp),%eax
  1019fa:	0f b6 80 a0 7c 2d 00 	movzbl 0x2d7ca0(%eax),%eax
  101a01:	83 c8 40             	or     $0x40,%eax
  101a04:	0f b6 c0             	movzbl %al,%eax
  101a07:	f7 d0                	not    %eax
  101a09:	89 c2                	mov    %eax,%edx
  101a0b:	a1 a8 8d 2d 00       	mov    0x2d8da8,%eax
  101a10:	21 d0                	and    %edx,%eax
  101a12:	a3 a8 8d 2d 00       	mov    %eax,0x2d8da8
  101a17:	b8 00 00 00 00       	mov    $0x0,%eax
  101a1c:	e9 d6 00 00 00       	jmp    101af7 <kbd_proc_data+0x187>
  101a21:	a1 a8 8d 2d 00       	mov    0x2d8da8,%eax
  101a26:	83 e0 40             	and    $0x40,%eax
  101a29:	85 c0                	test   %eax,%eax
  101a2b:	74 11                	je     101a3e <kbd_proc_data+0xce>
  101a2d:	80 4d e4 80          	orb    $0x80,-0x1c(%ebp)
  101a31:	a1 a8 8d 2d 00       	mov    0x2d8da8,%eax
  101a36:	83 e0 bf             	and    $0xffffffbf,%eax
  101a39:	a3 a8 8d 2d 00       	mov    %eax,0x2d8da8
  101a3e:	0f b6 45 e4          	movzbl -0x1c(%ebp),%eax
  101a42:	0f b6 80 a0 7c 2d 00 	movzbl 0x2d7ca0(%eax),%eax
  101a49:	0f b6 d0             	movzbl %al,%edx
  101a4c:	a1 a8 8d 2d 00       	mov    0x2d8da8,%eax
  101a51:	09 d0                	or     %edx,%eax
  101a53:	a3 a8 8d 2d 00       	mov    %eax,0x2d8da8
  101a58:	0f b6 45 e4          	movzbl -0x1c(%ebp),%eax
  101a5c:	0f b6 80 a0 7d 2d 00 	movzbl 0x2d7da0(%eax),%eax
  101a63:	0f b6 d0             	movzbl %al,%edx
  101a66:	a1 a8 8d 2d 00       	mov    0x2d8da8,%eax
  101a6b:	31 d0                	xor    %edx,%eax
  101a6d:	a3 a8 8d 2d 00       	mov    %eax,0x2d8da8
  101a72:	a1 a8 8d 2d 00       	mov    0x2d8da8,%eax
  101a77:	83 e0 03             	and    $0x3,%eax
  101a7a:	8b 14 85 a0 81 2d 00 	mov    0x2d81a0(,%eax,4),%edx
  101a81:	0f b6 45 e4          	movzbl -0x1c(%ebp),%eax
  101a85:	01 d0                	add    %edx,%eax
  101a87:	0f b6 00             	movzbl (%eax),%eax
  101a8a:	0f b6 c0             	movzbl %al,%eax
  101a8d:	89 45 e8             	mov    %eax,-0x18(%ebp)
  101a90:	a1 a8 8d 2d 00       	mov    0x2d8da8,%eax
  101a95:	83 e0 08             	and    $0x8,%eax
  101a98:	85 c0                	test   %eax,%eax
  101a9a:	74 22                	je     101abe <kbd_proc_data+0x14e>
  101a9c:	83 7d e8 60          	cmpl   $0x60,-0x18(%ebp)
  101aa0:	7e 0c                	jle    101aae <kbd_proc_data+0x13e>
  101aa2:	83 7d e8 7a          	cmpl   $0x7a,-0x18(%ebp)
  101aa6:	7f 06                	jg     101aae <kbd_proc_data+0x13e>
  101aa8:	83 6d e8 20          	subl   $0x20,-0x18(%ebp)
  101aac:	eb 10                	jmp    101abe <kbd_proc_data+0x14e>
  101aae:	83 7d e8 40          	cmpl   $0x40,-0x18(%ebp)
  101ab2:	7e 0a                	jle    101abe <kbd_proc_data+0x14e>
  101ab4:	83 7d e8 5a          	cmpl   $0x5a,-0x18(%ebp)
  101ab8:	7f 04                	jg     101abe <kbd_proc_data+0x14e>
  101aba:	83 45 e8 20          	addl   $0x20,-0x18(%ebp)
  101abe:	a1 a8 8d 2d 00       	mov    0x2d8da8,%eax
  101ac3:	f7 d0                	not    %eax
  101ac5:	83 e0 06             	and    $0x6,%eax
  101ac8:	85 c0                	test   %eax,%eax
  101aca:	75 28                	jne    101af4 <kbd_proc_data+0x184>
  101acc:	81 7d e8 e9 00 00 00 	cmpl   $0xe9,-0x18(%ebp)
  101ad3:	75 1f                	jne    101af4 <kbd_proc_data+0x184>
  101ad5:	c7 04 24 b9 22 10 00 	movl   $0x1022b9,(%esp)
  101adc:	e8 95 f1 ff ff       	call   100c76 <printk>
  101ae1:	c7 45 f4 92 00 00 00 	movl   $0x92,-0xc(%ebp)
  101ae8:	c6 45 e7 03          	movb   $0x3,-0x19(%ebp)
  101aec:	0f b6 45 e7          	movzbl -0x19(%ebp),%eax
  101af0:	8b 55 f4             	mov    -0xc(%ebp),%edx
  101af3:	ee                   	out    %al,(%dx)
  101af4:	8b 45 e8             	mov    -0x18(%ebp),%eax
  101af7:	c9                   	leave  
  101af8:	c3                   	ret    

00101af9 <kbd_intr>:
  101af9:	55                   	push   %ebp
  101afa:	89 e5                	mov    %esp,%ebp
  101afc:	83 ec 18             	sub    $0x18,%esp
  101aff:	c7 04 24 70 19 10 00 	movl   $0x101970,(%esp)
  101b06:	e8 07 00 00 00       	call   101b12 <cons_intr>
  101b0b:	c9                   	leave  
  101b0c:	c3                   	ret    

00101b0d <kbd_init>:
  101b0d:	55                   	push   %ebp
  101b0e:	89 e5                	mov    %esp,%ebp
  101b10:	5d                   	pop    %ebp
  101b11:	c3                   	ret    

00101b12 <cons_intr>:
  101b12:	55                   	push   %ebp
  101b13:	89 e5                	mov    %esp,%ebp
  101b15:	83 ec 18             	sub    $0x18,%esp
  101b18:	eb 35                	jmp    101b4f <cons_intr+0x3d>
  101b1a:	83 7d f4 00          	cmpl   $0x0,-0xc(%ebp)
  101b1e:	75 02                	jne    101b22 <cons_intr+0x10>
  101b20:	eb 2d                	jmp    101b4f <cons_intr+0x3d>
  101b22:	a1 a4 8d 2d 00       	mov    0x2d8da4,%eax
  101b27:	8d 50 01             	lea    0x1(%eax),%edx
  101b2a:	89 15 a4 8d 2d 00    	mov    %edx,0x2d8da4
  101b30:	8b 55 f4             	mov    -0xc(%ebp),%edx
  101b33:	88 90 a0 8b 2d 00    	mov    %dl,0x2d8ba0(%eax)
  101b39:	a1 a4 8d 2d 00       	mov    0x2d8da4,%eax
  101b3e:	3d 00 02 00 00       	cmp    $0x200,%eax
  101b43:	75 0a                	jne    101b4f <cons_intr+0x3d>
  101b45:	c7 05 a4 8d 2d 00 00 	movl   $0x0,0x2d8da4
  101b4c:	00 00 00 
  101b4f:	8b 45 08             	mov    0x8(%ebp),%eax
  101b52:	ff d0                	call   *%eax
  101b54:	89 45 f4             	mov    %eax,-0xc(%ebp)
  101b57:	83 7d f4 ff          	cmpl   $0xffffffff,-0xc(%ebp)
  101b5b:	75 bd                	jne    101b1a <cons_intr+0x8>
  101b5d:	c9                   	leave  
  101b5e:	c3                   	ret    

00101b5f <cons_getc>:
  101b5f:	55                   	push   %ebp
  101b60:	89 e5                	mov    %esp,%ebp
  101b62:	83 ec 18             	sub    $0x18,%esp
  101b65:	e8 8f ff ff ff       	call   101af9 <kbd_intr>
  101b6a:	8b 15 a0 8d 2d 00    	mov    0x2d8da0,%edx
  101b70:	a1 a4 8d 2d 00       	mov    0x2d8da4,%eax
  101b75:	39 c2                	cmp    %eax,%edx
  101b77:	74 36                	je     101baf <cons_getc+0x50>
  101b79:	a1 a0 8d 2d 00       	mov    0x2d8da0,%eax
  101b7e:	8d 50 01             	lea    0x1(%eax),%edx
  101b81:	89 15 a0 8d 2d 00    	mov    %edx,0x2d8da0
  101b87:	0f b6 80 a0 8b 2d 00 	movzbl 0x2d8ba0(%eax),%eax
  101b8e:	0f b6 c0             	movzbl %al,%eax
  101b91:	89 45 f4             	mov    %eax,-0xc(%ebp)
  101b94:	a1 a0 8d 2d 00       	mov    0x2d8da0,%eax
  101b99:	3d 00 02 00 00       	cmp    $0x200,%eax
  101b9e:	75 0a                	jne    101baa <cons_getc+0x4b>
  101ba0:	c7 05 a0 8d 2d 00 00 	movl   $0x0,0x2d8da0
  101ba7:	00 00 00 
  101baa:	8b 45 f4             	mov    -0xc(%ebp),%eax
  101bad:	eb 05                	jmp    101bb4 <cons_getc+0x55>
  101baf:	b8 00 00 00 00       	mov    $0x0,%eax
  101bb4:	c9                   	leave  
  101bb5:	c3                   	ret    

00101bb6 <cons_init>:
  101bb6:	55                   	push   %ebp
  101bb7:	89 e5                	mov    %esp,%ebp
  101bb9:	83 ec 18             	sub    $0x18,%esp
  101bbc:	e8 4c ff ff ff       	call   101b0d <kbd_init>
  101bc1:	e8 df fc ff ff       	call   1018a5 <init_serial>
  101bc6:	0f b6 05 80 8b 2d 00 	movzbl 0x2d8b80,%eax
  101bcd:	83 f0 01             	xor    $0x1,%eax
  101bd0:	84 c0                	test   %al,%al
  101bd2:	74 0c                	je     101be0 <cons_init+0x2a>
  101bd4:	c7 04 24 c5 22 10 00 	movl   $0x1022c5,(%esp)
  101bdb:	e8 96 f0 ff ff       	call   100c76 <printk>
  101be0:	c9                   	leave  
  101be1:	c3                   	ret    

00101be2 <cputchar>:
  101be2:	55                   	push   %ebp
  101be3:	89 e5                	mov    %esp,%ebp
  101be5:	83 ec 04             	sub    $0x4,%esp
  101be8:	8b 45 08             	mov    0x8(%ebp),%eax
  101beb:	89 04 24             	mov    %eax,(%esp)
  101bee:	e8 73 fc ff ff       	call   101866 <serial_putc>
  101bf3:	c9                   	leave  
  101bf4:	c3                   	ret    

00101bf5 <getchar>:
  101bf5:	55                   	push   %ebp
  101bf6:	89 e5                	mov    %esp,%ebp
  101bf8:	83 ec 18             	sub    $0x18,%esp
  101bfb:	e8 5f ff ff ff       	call   101b5f <cons_getc>
  101c00:	89 45 f4             	mov    %eax,-0xc(%ebp)
  101c03:	83 7d f4 00          	cmpl   $0x0,-0xc(%ebp)
  101c07:	74 f2                	je     101bfb <getchar+0x6>
  101c09:	8b 45 f4             	mov    -0xc(%ebp),%eax
  101c0c:	c9                   	leave  
  101c0d:	c3                   	ret    

00101c0e <iscons>:
  101c0e:	55                   	push   %ebp
  101c0f:	89 e5                	mov    %esp,%ebp
  101c11:	b8 01 00 00 00       	mov    $0x1,%eax
  101c16:	5d                   	pop    %ebp
  101c17:	c3                   	ret    

00101c18 <vec0>:
  101c18:	6a 00                	push   $0x0
  101c1a:	6a 00                	push   $0x0
  101c1c:	e9 ab 00 00 00       	jmp    101ccc <asm_do_irq>

00101c21 <vec1>:
  101c21:	6a 00                	push   $0x0
  101c23:	6a 01                	push   $0x1
  101c25:	e9 a2 00 00 00       	jmp    101ccc <asm_do_irq>

00101c2a <vec2>:
  101c2a:	6a 00                	push   $0x0
  101c2c:	6a 02                	push   $0x2
  101c2e:	e9 99 00 00 00       	jmp    101ccc <asm_do_irq>

00101c33 <vec3>:
  101c33:	6a 00                	push   $0x0
  101c35:	6a 03                	push   $0x3
  101c37:	e9 90 00 00 00       	jmp    101ccc <asm_do_irq>

00101c3c <vec4>:
  101c3c:	6a 00                	push   $0x0
  101c3e:	6a 04                	push   $0x4
  101c40:	e9 87 00 00 00       	jmp    101ccc <asm_do_irq>

00101c45 <vec5>:
  101c45:	6a 00                	push   $0x0
  101c47:	6a 05                	push   $0x5
  101c49:	e9 7e 00 00 00       	jmp    101ccc <asm_do_irq>

00101c4e <vec6>:
  101c4e:	6a 00                	push   $0x0
  101c50:	6a 06                	push   $0x6
  101c52:	e9 75 00 00 00       	jmp    101ccc <asm_do_irq>

00101c57 <vec7>:
  101c57:	6a 00                	push   $0x0
  101c59:	6a 07                	push   $0x7
  101c5b:	e9 6c 00 00 00       	jmp    101ccc <asm_do_irq>

00101c60 <vec8>:
  101c60:	6a 08                	push   $0x8
  101c62:	e9 65 00 00 00       	jmp    101ccc <asm_do_irq>

00101c67 <vec9>:
  101c67:	6a 00                	push   $0x0
  101c69:	6a 09                	push   $0x9
  101c6b:	e9 5c 00 00 00       	jmp    101ccc <asm_do_irq>

00101c70 <vec10>:
  101c70:	6a 0a                	push   $0xa
  101c72:	e9 55 00 00 00       	jmp    101ccc <asm_do_irq>

00101c77 <vec11>:
  101c77:	6a 0b                	push   $0xb
  101c79:	e9 4e 00 00 00       	jmp    101ccc <asm_do_irq>

00101c7e <vec12>:
  101c7e:	6a 0c                	push   $0xc
  101c80:	e9 47 00 00 00       	jmp    101ccc <asm_do_irq>

00101c85 <vec13>:
  101c85:	6a 0d                	push   $0xd
  101c87:	e9 40 00 00 00       	jmp    101ccc <asm_do_irq>

00101c8c <vec14>:
  101c8c:	6a 0e                	push   $0xe
  101c8e:	e9 39 00 00 00       	jmp    101ccc <asm_do_irq>

00101c93 <vecsys>:
  101c93:	6a 00                	push   $0x0
  101c95:	68 80 00 00 00       	push   $0x80
  101c9a:	e9 2d 00 00 00       	jmp    101ccc <asm_do_irq>

00101c9f <irq0>:
  101c9f:	6a 00                	push   $0x0
  101ca1:	68 e8 03 00 00       	push   $0x3e8
  101ca6:	e9 21 00 00 00       	jmp    101ccc <asm_do_irq>

00101cab <irq1>:
  101cab:	6a 00                	push   $0x0
  101cad:	68 e9 03 00 00       	push   $0x3e9
  101cb2:	e9 15 00 00 00       	jmp    101ccc <asm_do_irq>

00101cb7 <irq14>:
  101cb7:	6a 00                	push   $0x0
  101cb9:	68 f6 03 00 00       	push   $0x3f6
  101cbe:	e9 09 00 00 00       	jmp    101ccc <asm_do_irq>

00101cc3 <irq_empty>:
  101cc3:	6a 00                	push   $0x0
  101cc5:	6a ff                	push   $0xffffffff
  101cc7:	e9 00 00 00 00       	jmp    101ccc <asm_do_irq>

00101ccc <asm_do_irq>:
  101ccc:	60                   	pusha  
  101ccd:	54                   	push   %esp
  101cce:	e8 f7 fa ff ff       	call   1017ca <irq_handle>
  101cd3:	83 c4 04             	add    $0x4,%esp
  101cd6:	61                   	popa   
  101cd7:	83 c4 08             	add    $0x8,%esp
  101cda:	cf                   	iret   
